ARM GAS  C:\Users\tiantiaf\AppData\Local\Temp\ccIhqtdh.s 			page 1


   1              		.cpu cortex-m0
   2              		.fpu softvfp
   3              		.eabi_attribute 20, 1
   4              		.eabi_attribute 21, 1
   5              		.eabi_attribute 23, 3
   6              		.eabi_attribute 24, 1
   7              		.eabi_attribute 25, 1
   8              		.eabi_attribute 26, 1
   9              		.eabi_attribute 30, 1
  10              		.eabi_attribute 34, 0
  11              		.eabi_attribute 18, 4
  12              		.code	16
  13              		.file	"Pulse_Timestamp.c"
  14              		.text
  15              	.Ltext0:
  16              		.cfi_sections	.debug_frame
  17              		.global	__aeabi_uidivmod
  18              		.global	__aeabi_uidiv
  19              		.section	.text.MS_ISR,"ax",%progbits
  20              		.align	2
  21              		.global	MS_ISR
  22              		.code	16
  23              		.thumb_func
  24              		.type	MS_ISR, %function
  25              	MS_ISR:
  26              	.LFB37:
  27              		.file 1 "Pulse_Timestamp.c"
   1:Pulse_Timestamp.c **** /* ========================================
   2:Pulse_Timestamp.c ****  *
   3:Pulse_Timestamp.c ****  * SAIL, USC, 2017
   4:Pulse_Timestamp.c ****  * All Rights Reserved
   5:Pulse_Timestamp.c ****  * UNPUBLISHED, LICENSED SOFTWARE.
   6:Pulse_Timestamp.c ****  *
   7:Pulse_Timestamp.c ****  * CONFIDENTIAL AND PROPRIETARY INFORMATION
   8:Pulse_Timestamp.c ****  * WHICH IS THE PROPERTY OF your company.
   9:Pulse_Timestamp.c ****  *
  10:Pulse_Timestamp.c ****  * ========================================
  11:Pulse_Timestamp.c **** */
  12:Pulse_Timestamp.c **** 
  13:Pulse_Timestamp.c **** #include <project.h>
  14:Pulse_Timestamp.c **** #include <main.h>
  15:Pulse_Timestamp.c **** #include "Pulse_Timestamp.h"
  16:Pulse_Timestamp.c **** #include "Pulse_Init.h"
  17:Pulse_Timestamp.c **** 
  18:Pulse_Timestamp.c **** uint16 temp_data[DATA_PER_FRAME];
  19:Pulse_Timestamp.c **** 
  20:Pulse_Timestamp.c **** CY_ISR(MS_ISR) {
  28              		.loc 1 20 0
  29              		.cfi_startproc
  30 0000 38B5     		push	{r3, r4, r5, lr}
  31              		.cfi_def_cfa_offset 16
  32              		.cfi_offset 3, -16
  33              		.cfi_offset 4, -12
  34              		.cfi_offset 5, -8
  35              		.cfi_offset 14, -4
  21:Pulse_Timestamp.c ****     
  22:Pulse_Timestamp.c ****     if(charNotificationEnabled == TRUE) {
ARM GAS  C:\Users\tiantiaf\AppData\Local\Temp\ccIhqtdh.s 			page 2


  36              		.loc 1 22 0
  37 0002 1B4B     		ldr	r3, .L5
  38 0004 1B78     		ldrb	r3, [r3]
  39 0006 012B     		cmp	r3, #1
  40 0008 30D1     		bne	.L1
  23:Pulse_Timestamp.c ****         time_stamp++;
  41              		.loc 1 23 0
  42 000a 1A4B     		ldr	r3, .L5+4
  43 000c 1A68     		ldr	r2, [r3]
  44 000e 541C     		add	r4, r2, #1
  45 0010 1C60     		str	r4, [r3]
  24:Pulse_Timestamp.c ****         if( (time_stamp % 20) == 0) {
  46              		.loc 1 24 0
  47 0012 201C     		mov	r0, r4
  48 0014 1421     		mov	r1, #20
  49 0016 FFF7FEFF 		bl	__aeabi_uidivmod
  50              	.LVL0:
  51 001a 0029     		cmp	r1, #0
  52 001c 26D1     		bne	.L1
  53              	.LBB5:
  25:Pulse_Timestamp.c ****         
  26:Pulse_Timestamp.c ****             uint8 index = (time_stamp % 100) / 20;
  54              		.loc 1 26 0
  55 001e 201C     		mov	r0, r4
  56 0020 6431     		add	r1, r1, #100
  57 0022 FFF7FEFF 		bl	__aeabi_uidivmod
  58              	.LVL1:
  59 0026 081C     		mov	r0, r1
  60 0028 1421     		mov	r1, #20
  61 002a FFF7FEFF 		bl	__aeabi_uidiv
  62              	.LVL2:
  63 002e C5B2     		uxtb	r5, r0
  64              	.LVL3:
  65 0030 FF24     		mov	r4, #255
  66 0032 0440     		and	r4, r0
  27:Pulse_Timestamp.c ****             temp_data[index] = ReadPulseData();
  67              		.loc 1 27 0
  68 0034 FFF7FEFF 		bl	ReadPulseData
  69              	.LVL4:
  70 0038 6400     		lsl	r4, r4, #1
  71 003a 0F4B     		ldr	r3, .L5+8
  72 003c E052     		strh	r0, [r4, r3]
  28:Pulse_Timestamp.c ****             
  29:Pulse_Timestamp.c ****             /* Send 5 Sensor Data Out Every 100ms with Timestamp */
  30:Pulse_Timestamp.c ****             if(index == 4) {
  73              		.loc 1 30 0
  74 003e 042D     		cmp	r5, #4
  75 0040 14D1     		bne	.L1
  31:Pulse_Timestamp.c ****                 
  32:Pulse_Timestamp.c ****                 temp_data[DATA_QUEUE_TIME_STAMP_LOW]   = (time_stamp & 0xFFFF);
  76              		.loc 1 32 0
  77 0042 0C4B     		ldr	r3, .L5+4
  78 0044 1B68     		ldr	r3, [r3]
  79 0046 0C48     		ldr	r0, .L5+8
  80 0048 4381     		strh	r3, [r0, #10]
  33:Pulse_Timestamp.c ****                 temp_data[DATA_QUEUE_TIME_STAMP_HIGH]  = ( (time_stamp >> 16) & 0xFFFF);
  81              		.loc 1 33 0
ARM GAS  C:\Users\tiantiaf\AppData\Local\Temp\ccIhqtdh.s 			page 3


  82 004a 1B0C     		lsr	r3, r3, #16
  83 004c 8381     		strh	r3, [r0, #12]
  34:Pulse_Timestamp.c ****                 UpdateDataBack(temp_data);
  84              		.loc 1 34 0
  85 004e FFF7FEFF 		bl	UpdateDataBack
  86              	.LVL5:
  35:Pulse_Timestamp.c ****                 
  36:Pulse_Timestamp.c ****                 sendDataEnabled = TRUE;
  87              		.loc 1 36 0
  88 0052 0122     		mov	r2, #1
  89 0054 094B     		ldr	r3, .L5+12
  90 0056 1A70     		strb	r2, [r3]
  91              	.LVL6:
  92              	.LBB6:
  93              	.LBB7:
  37:Pulse_Timestamp.c ****                 
  38:Pulse_Timestamp.c ****                 Reset_Temp_Data();
  39:Pulse_Timestamp.c ****             }
  40:Pulse_Timestamp.c ****         
  41:Pulse_Timestamp.c ****         }
  42:Pulse_Timestamp.c ****         
  43:Pulse_Timestamp.c ****     }
  44:Pulse_Timestamp.c ****     
  45:Pulse_Timestamp.c ****     /*
  46:Pulse_Timestamp.c ****     if( (time_stamp % 20) == 0) {
  47:Pulse_Timestamp.c ****         
  48:Pulse_Timestamp.c ****         uint8 index = (time_stamp % 100) / 20;
  49:Pulse_Timestamp.c ****         temp_data[index] = ReadPulseData();
  50:Pulse_Timestamp.c ****         
  51:Pulse_Timestamp.c ****         if( ( (time_stamp % 100) / 20 ) == 4 ) {
  52:Pulse_Timestamp.c ****             if(DataQueue_IsFull(&pulse_raw_data) ){
  53:Pulse_Timestamp.c ****                 DataQueue_RemoveData(&pulse_raw_data);
  54:Pulse_Timestamp.c ****             }
  55:Pulse_Timestamp.c ****             temp_data[TIME_STAMP_LOW]   = (time_stamp & 0xFFFF);
  56:Pulse_Timestamp.c ****             temp_data[TIME_STAMP_HIGH]  = ( (time_stamp >> 16) & 0xFFFF);
  57:Pulse_Timestamp.c ****             
  58:Pulse_Timestamp.c ****             DataQueue_AddData(&pulse_raw_data, temp_data);
  59:Pulse_Timestamp.c ****             
  60:Pulse_Timestamp.c ****             Reset_Temp_Data();
  61:Pulse_Timestamp.c ****         }
  62:Pulse_Timestamp.c ****         
  63:Pulse_Timestamp.c ****     }*/
  64:Pulse_Timestamp.c **** }
  65:Pulse_Timestamp.c **** 
  66:Pulse_Timestamp.c **** inline void Reset_Temp_Data() {
  67:Pulse_Timestamp.c ****     uint8 i = 0;
  68:Pulse_Timestamp.c ****     for (i = 0; i < DATA_PER_FRAME; i++) {
  94              		.loc 1 68 0
  95 0058 0023     		mov	r3, #0
  96 005a 05E0     		b	.L3
  97              	.LVL7:
  98              	.L4:
  69:Pulse_Timestamp.c ****         temp_data[i] = 0;
  99              		.loc 1 69 0
 100 005c 5900     		lsl	r1, r3, #1
 101 005e 0020     		mov	r0, #0
 102 0060 054A     		ldr	r2, .L5+8
ARM GAS  C:\Users\tiantiaf\AppData\Local\Temp\ccIhqtdh.s 			page 4


 103 0062 8852     		strh	r0, [r1, r2]
  68:Pulse_Timestamp.c ****         temp_data[i] = 0;
 104              		.loc 1 68 0
 105 0064 0133     		add	r3, r3, #1
 106              	.LVL8:
 107 0066 DBB2     		uxtb	r3, r3
 108              	.LVL9:
 109              	.L3:
 110 0068 062B     		cmp	r3, #6
 111 006a F7D9     		bls	.L4
 112              	.LVL10:
 113              	.L1:
 114              	.LBE7:
 115              	.LBE6:
 116              	.LBE5:
  64:Pulse_Timestamp.c **** 
 117              		.loc 1 64 0
 118              		@ sp needed
 119 006c 38BD     		pop	{r3, r4, r5, pc}
 120              	.L6:
 121 006e C046     		.align	2
 122              	.L5:
 123 0070 00000000 		.word	charNotificationEnabled
 124 0074 00000000 		.word	time_stamp
 125 0078 00000000 		.word	temp_data
 126 007c 00000000 		.word	sendDataEnabled
 127              		.cfi_endproc
 128              	.LFE37:
 129              		.size	MS_ISR, .-MS_ISR
 130              		.section	.text.Reset_Temp_Data,"ax",%progbits
 131              		.align	2
 132              		.global	Reset_Temp_Data
 133              		.code	16
 134              		.thumb_func
 135              		.type	Reset_Temp_Data, %function
 136              	Reset_Temp_Data:
 137              	.LFB38:
  66:Pulse_Timestamp.c ****     uint8 i = 0;
 138              		.loc 1 66 0
 139              		.cfi_startproc
 140              	.LVL11:
  68:Pulse_Timestamp.c ****         temp_data[i] = 0;
 141              		.loc 1 68 0
 142 0000 0023     		mov	r3, #0
 143 0002 05E0     		b	.L8
 144              	.LVL12:
 145              	.L9:
 146              		.loc 1 69 0 discriminator 3
 147 0004 5900     		lsl	r1, r3, #1
 148 0006 0020     		mov	r0, #0
 149 0008 034A     		ldr	r2, .L10
 150 000a 8852     		strh	r0, [r1, r2]
  68:Pulse_Timestamp.c ****         temp_data[i] = 0;
 151              		.loc 1 68 0 discriminator 3
 152 000c 0133     		add	r3, r3, #1
 153              	.LVL13:
 154 000e DBB2     		uxtb	r3, r3
ARM GAS  C:\Users\tiantiaf\AppData\Local\Temp\ccIhqtdh.s 			page 5


 155              	.LVL14:
 156              	.L8:
  68:Pulse_Timestamp.c ****         temp_data[i] = 0;
 157              		.loc 1 68 0 is_stmt 0 discriminator 1
 158 0010 062B     		cmp	r3, #6
 159 0012 F7D9     		bls	.L9
  70:Pulse_Timestamp.c ****     }
  71:Pulse_Timestamp.c **** }
 160              		.loc 1 71 0 is_stmt 1
 161              		@ sp needed
 162 0014 7047     		bx	lr
 163              	.L11:
 164 0016 C046     		.align	2
 165              	.L10:
 166 0018 00000000 		.word	temp_data
 167              		.cfi_endproc
 168              	.LFE38:
 169              		.size	Reset_Temp_Data, .-Reset_Temp_Data
 170              		.comm	temp_data,14,4
 171              		.text
 172              	.Letext0:
 173              		.file 2 "Generated_Source\\PSoC4/cytypes.h"
 174              		.file 3 "./BLEApplications.h"
 175              		.file 4 "./main.h"
 176              		.file 5 "Generated_Source\\PSoC4/BLE_PULSE_Stack.h"
 177              		.file 6 "Pulse_Init.h"