ARM GAS  C:\Users\tiantiaf\AppData\Local\Temp\cclaxls4.s 			page 1


   1              		.cpu cortex-m0
   2              		.fpu softvfp
   3              		.eabi_attribute 20, 1
   4              		.eabi_attribute 21, 1
   5              		.eabi_attribute 23, 3
   6              		.eabi_attribute 24, 1
   7              		.eabi_attribute 25, 1
   8              		.eabi_attribute 26, 1
   9              		.eabi_attribute 30, 1
  10              		.eabi_attribute 34, 0
  11              		.eabi_attribute 18, 4
  12              		.code	16
  13              		.file	"Pulse_Init.c"
  14              		.text
  15              	.Ltext0:
  16              		.cfi_sections	.debug_frame
  17              		.section	.text.InitializeSystem,"ax",%progbits
  18              		.align	2
  19              		.global	InitializeSystem
  20              		.code	16
  21              		.thumb_func
  22              		.type	InitializeSystem, %function
  23              	InitializeSystem:
  24              	.LFB37:
  25              		.file 1 "Pulse_Init.c"
   1:Pulse_Init.c  **** /* ========================================
   2:Pulse_Init.c  ****  *
   3:Pulse_Init.c  ****  * Tiantian Feng, 2017
   4:Pulse_Init.c  ****  * All Rights Reserved
   5:Pulse_Init.c  ****  * UNPUBLISHED, LICENSED SOFTWARE.
   6:Pulse_Init.c  ****  *
   7:Pulse_Init.c  ****  * CONFIDENTIAL AND PROPRIETARY INFORMATION
   8:Pulse_Init.c  ****  * WHICH IS THE PROPERTY OF your company.
   9:Pulse_Init.c  ****  *
  10:Pulse_Init.c  ****  * ========================================
  11:Pulse_Init.c  **** */
  12:Pulse_Init.c  **** 
  13:Pulse_Init.c  **** #include "Pulse_Init.h"
  14:Pulse_Init.c  **** #include "Pulse_Timestamp.h"
  15:Pulse_Init.c  **** 
  16:Pulse_Init.c  **** /*******************************************************************************
  17:Pulse_Init.c  **** * Function Name: InitializeSystem
  18:Pulse_Init.c  **** ********************************************************************************
  19:Pulse_Init.c  **** * Summary:
  20:Pulse_Init.c  **** * Start the components and initialize system.
  21:Pulse_Init.c  **** *
  22:Pulse_Init.c  **** * Parameters:
  23:Pulse_Init.c  **** *  void
  24:Pulse_Init.c  **** *
  25:Pulse_Init.c  **** * Return:
  26:Pulse_Init.c  **** *  void
  27:Pulse_Init.c  **** *
  28:Pulse_Init.c  **** *******************************************************************************/
  29:Pulse_Init.c  **** void InitializeSystem(void)
  30:Pulse_Init.c  **** {
  26              		.loc 1 30 0
  27              		.cfi_startproc
ARM GAS  C:\Users\tiantiaf\AppData\Local\Temp\cclaxls4.s 			page 2


  28 0000 08B5     		push	{r3, lr}
  29              		.cfi_def_cfa_offset 8
  30              		.cfi_offset 3, -8
  31              		.cfi_offset 14, -4
  31:Pulse_Init.c  **** 	/* Enable global interrupt mask */
  32:Pulse_Init.c  **** 	CyGlobalIntEnable; 
  32              		.loc 1 32 0
  33              	@ 32 "Pulse_Init.c" 1
  34 0002 62B6     		CPSIE   i
  35              	@ 0 "" 2
  33:Pulse_Init.c  **** 		
  34:Pulse_Init.c  **** 	/* Start BLE component and register the CustomEventHandler function. This 
  35:Pulse_Init.c  **** 	 * function exposes the events from BLE component for application use */
  36:Pulse_Init.c  ****     CyBle_Start(CustomEventHandler);
  36              		.loc 1 36 0
  37              		.code	16
  38 0004 0B48     		ldr	r0, .L2
  39 0006 FFF7FEFF 		bl	CyBle_Start
  40              	.LVL0:
  37:Pulse_Init.c  ****     
  38:Pulse_Init.c  ****     LED_Write(LED_ON);
  41              		.loc 1 38 0
  42 000a 0020     		mov	r0, #0
  43 000c FFF7FEFF 		bl	LED_Write
  44              	.LVL1:
  39:Pulse_Init.c  ****     
  40:Pulse_Init.c  ****     Timer_Pulse_Init();
  45              		.loc 1 40 0
  46 0010 FFF7FEFF 		bl	Timer_Pulse_Init
  47              	.LVL2:
  41:Pulse_Init.c  ****     Timer_Pulse_Start();
  48              		.loc 1 41 0
  49 0014 FFF7FEFF 		bl	Timer_Pulse_Start
  50              	.LVL3:
  42:Pulse_Init.c  ****     
  43:Pulse_Init.c  ****     Pulse_ADC_SAR_Seq_Init();
  51              		.loc 1 43 0
  52 0018 FFF7FEFF 		bl	Pulse_ADC_SAR_Seq_Init
  53              	.LVL4:
  44:Pulse_Init.c  ****     Pulse_ADC_SAR_Seq_Start();
  54              		.loc 1 44 0
  55 001c FFF7FEFF 		bl	Pulse_ADC_SAR_Seq_Start
  56              	.LVL5:
  45:Pulse_Init.c  ****     Pulse_ADC_SAR_Seq_StartConvert();
  57              		.loc 1 45 0
  58 0020 FFF7FEFF 		bl	Pulse_ADC_SAR_Seq_StartConvert
  59              	.LVL6:
  46:Pulse_Init.c  ****     
  47:Pulse_Init.c  ****     Pulse_ADC_SAR_Seq_IsEndConversion(Pulse_ADC_SAR_Seq_WAIT_FOR_RESULT);
  60              		.loc 1 47 0
  61 0024 0220     		mov	r0, #2
  62 0026 FFF7FEFF 		bl	Pulse_ADC_SAR_Seq_IsEndConversion
  63              	.LVL7:
  48:Pulse_Init.c  ****     
  49:Pulse_Init.c  ****     ms_isr_StartEx(MS_ISR);
  64              		.loc 1 49 0
  65 002a 0348     		ldr	r0, .L2+4
ARM GAS  C:\Users\tiantiaf\AppData\Local\Temp\cclaxls4.s 			page 3


  66 002c FFF7FEFF 		bl	ms_isr_StartEx
  67              	.LVL8:
  50:Pulse_Init.c  **** }
  68              		.loc 1 50 0
  69              		@ sp needed
  70 0030 08BD     		pop	{r3, pc}
  71              	.L3:
  72 0032 C046     		.align	2
  73              	.L2:
  74 0034 00000000 		.word	CustomEventHandler
  75 0038 00000000 		.word	MS_ISR
  76              		.cfi_endproc
  77              	.LFE37:
  78              		.size	InitializeSystem, .-InitializeSystem
  79              		.section	.text.StopTimer,"ax",%progbits
  80              		.align	2
  81              		.global	StopTimer
  82              		.code	16
  83              		.thumb_func
  84              		.type	StopTimer, %function
  85              	StopTimer:
  86              	.LFB38:
  51:Pulse_Init.c  **** 
  52:Pulse_Init.c  **** 
  53:Pulse_Init.c  **** void StopTimer(void)
  54:Pulse_Init.c  **** {
  87              		.loc 1 54 0
  88              		.cfi_startproc
  89 0000 08B5     		push	{r3, lr}
  90              		.cfi_def_cfa_offset 8
  91              		.cfi_offset 3, -8
  92              		.cfi_offset 14, -4
  55:Pulse_Init.c  ****     ms_isr_Stop();
  93              		.loc 1 55 0
  94 0002 FFF7FEFF 		bl	ms_isr_Stop
  95              	.LVL9:
  56:Pulse_Init.c  ****     
  57:Pulse_Init.c  **** }
  96              		.loc 1 57 0
  97              		@ sp needed
  98 0006 08BD     		pop	{r3, pc}
  99              		.cfi_endproc
 100              	.LFE38:
 101              		.size	StopTimer, .-StopTimer
 102              		.section	.text.ReadPulseData,"ax",%progbits
 103              		.align	2
 104              		.global	ReadPulseData
 105              		.code	16
 106              		.thumb_func
 107              		.type	ReadPulseData, %function
 108              	ReadPulseData:
 109              	.LFB39:
  58:Pulse_Init.c  **** 
  59:Pulse_Init.c  **** uint16 ReadPulseData(){
 110              		.loc 1 59 0
 111              		.cfi_startproc
 112 0000 08B5     		push	{r3, lr}
ARM GAS  C:\Users\tiantiaf\AppData\Local\Temp\cclaxls4.s 			page 4


 113              		.cfi_def_cfa_offset 8
 114              		.cfi_offset 3, -8
 115              		.cfi_offset 14, -4
 116              	.LVL10:
  60:Pulse_Init.c  ****     uint16 pulse = 0;
  61:Pulse_Init.c  ****     pulse = Pulse_ADC_SAR_Seq_GetResult16(0);
 117              		.loc 1 61 0
 118 0002 0020     		mov	r0, #0
 119 0004 FFF7FEFF 		bl	Pulse_ADC_SAR_Seq_GetResult16
 120              	.LVL11:
 121 0008 80B2     		uxth	r0, r0
 122              	.LVL12:
  62:Pulse_Init.c  ****     return pulse;
  63:Pulse_Init.c  **** }
 123              		.loc 1 63 0
 124              		@ sp needed
 125 000a 08BD     		pop	{r3, pc}
 126              		.cfi_endproc
 127              	.LFE39:
 128              		.size	ReadPulseData, .-ReadPulseData
 129              		.text
 130              	.Letext0:
 131              		.file 2 "Generated_Source\\PSoC4/cytypes.h"
 132              		.file 3 "Generated_Source\\PSoC4/BLE_PULSE_Stack.h"
 133              		.file 4 "Generated_Source\\PSoC4/BLE_PULSE.h"
 134              		.file 5 "Generated_Source\\PSoC4/Timer_Pulse.h"
 135              		.file 6 "Generated_Source\\PSoC4/Pulse_ADC_SAR_Seq.h"
 136              		.file 7 "Generated_Source\\PSoC4/LED.h"
 137              		.file 8 "Generated_Source\\PSoC4/ms_isr.h"