ARM GAS  C:\Users\tiantiaf\AppData\Local\Temp\cc7Sutah.s 			page 1


   1              		.cpu cortex-m0
   2              		.fpu softvfp
   3              		.eabi_attribute 20, 1
   4              		.eabi_attribute 21, 1
   5              		.eabi_attribute 23, 3
   6              		.eabi_attribute 24, 1
   7              		.eabi_attribute 25, 1
   8              		.eabi_attribute 26, 1
   9              		.eabi_attribute 30, 1
  10              		.eabi_attribute 34, 0
  11              		.eabi_attribute 18, 4
  12              		.code	16
  13              		.file	"Stone_Init.c"
  14              		.text
  15              	.Ltext0:
  16              		.cfi_sections	.debug_frame
  17              		.section	.text.InitializeSystem,"ax",%progbits
  18              		.align	2
  19              		.global	InitializeSystem
  20              		.code	16
  21              		.thumb_func
  22              		.type	InitializeSystem, %function
  23              	InitializeSystem:
  24              	.LFB37:
  25              		.file 1 "Stone_Init.c"
   1:Stone_Init.c  **** /* ========================================
   2:Stone_Init.c  ****  *
   3:Stone_Init.c  ****  * Tiantian Feng, 2017
   4:Stone_Init.c  ****  * All Rights Reserved
   5:Stone_Init.c  ****  * UNPUBLISHED, LICENSED SOFTWARE.
   6:Stone_Init.c  ****  *
   7:Stone_Init.c  ****  * CONFIDENTIAL AND PROPRIETARY INFORMATION
   8:Stone_Init.c  ****  * WHICH IS THE PROPERTY OF your company.
   9:Stone_Init.c  ****  *
  10:Stone_Init.c  ****  * ========================================
  11:Stone_Init.c  **** */
  12:Stone_Init.c  **** 
  13:Stone_Init.c  **** #include "Stone_Init.h"
  14:Stone_Init.c  **** #include "Stone_Motor.h"
  15:Stone_Init.c  **** #include "Stone_Motor_Sequence.h"
  16:Stone_Init.c  **** 
  17:Stone_Init.c  **** 
  18:Stone_Init.c  **** /*******************************************************************************
  19:Stone_Init.c  **** * Function Name: InitializeSystem
  20:Stone_Init.c  **** ********************************************************************************
  21:Stone_Init.c  **** * Summary:
  22:Stone_Init.c  **** * Start the components and initialize system.
  23:Stone_Init.c  **** *
  24:Stone_Init.c  **** * Parameters:
  25:Stone_Init.c  **** *  void
  26:Stone_Init.c  **** *
  27:Stone_Init.c  **** * Return:
  28:Stone_Init.c  **** *  void
  29:Stone_Init.c  **** *
  30:Stone_Init.c  **** *******************************************************************************/
  31:Stone_Init.c  **** void InitializeSystem(void)
  32:Stone_Init.c  **** {
ARM GAS  C:\Users\tiantiaf\AppData\Local\Temp\cc7Sutah.s 			page 2


  26              		.loc 1 32 0
  27              		.cfi_startproc
  28 0000 08B5     		push	{r3, lr}
  29              		.cfi_def_cfa_offset 8
  30              		.cfi_offset 3, -8
  31              		.cfi_offset 14, -4
  33:Stone_Init.c  **** 	/* Enable global interrupt mask */
  34:Stone_Init.c  **** 	CyGlobalIntEnable; 
  32              		.loc 1 34 0
  33              	@ 34 "Stone_Init.c" 1
  34 0002 62B6     		CPSIE   i
  35              	@ 0 "" 2
  35:Stone_Init.c  **** 		
  36:Stone_Init.c  **** 	/* Start BLE component and register the CustomEventHandler function. This 
  37:Stone_Init.c  **** 	 * function exposes the events from BLE component for application use */
  38:Stone_Init.c  ****     CyBle_Start(CustomEventHandler);
  36              		.loc 1 38 0
  37              		.code	16
  38 0004 0648     		ldr	r0, .L2
  39 0006 FFF7FEFF 		bl	CyBle_Start
  40              	.LVL0:
  39:Stone_Init.c  ****     
  40:Stone_Init.c  ****     LED_Write(LED_ON);
  41              		.loc 1 40 0
  42 000a 0020     		mov	r0, #0
  43 000c FFF7FEFF 		bl	LED_Write
  44              	.LVL1:
  41:Stone_Init.c  ****     
  42:Stone_Init.c  ****     Motor_Write(MOTOR_OFF);
  45              		.loc 1 42 0
  46 0010 0020     		mov	r0, #0
  47 0012 FFF7FEFF 		bl	Motor_Write
  48              	.LVL2:
  43:Stone_Init.c  ****     
  44:Stone_Init.c  ****     Timer_Pulse_Init();
  49              		.loc 1 44 0
  50 0016 FFF7FEFF 		bl	Timer_Pulse_Init
  51              	.LVL3:
  45:Stone_Init.c  ****     Timer_Pulse_Start();
  52              		.loc 1 45 0
  53 001a FFF7FEFF 		bl	Timer_Pulse_Start
  54              	.LVL4:
  46:Stone_Init.c  **** }
  55              		.loc 1 46 0
  56              		@ sp needed
  57 001e 08BD     		pop	{r3, pc}
  58              	.L3:
  59              		.align	2
  60              	.L2:
  61 0020 00000000 		.word	CustomEventHandler
  62              		.cfi_endproc
  63              	.LFE37:
  64              		.size	InitializeSystem, .-InitializeSystem
  65              		.section	.text.StopStoneInterrupt,"ax",%progbits
  66              		.align	2
  67              		.global	StopStoneInterrupt
  68              		.code	16
ARM GAS  C:\Users\tiantiaf\AppData\Local\Temp\cc7Sutah.s 			page 3


  69              		.thumb_func
  70              		.type	StopStoneInterrupt, %function
  71              	StopStoneInterrupt:
  72              	.LFB39:
  47:Stone_Init.c  **** 
  48:Stone_Init.c  **** void InitStoneInterrupt()
  49:Stone_Init.c  **** {
  50:Stone_Init.c  ****     uint16 timer_Period;
  51:Stone_Init.c  ****     
  52:Stone_Init.c  ****     /* Init Timer and PWM */
  53:Stone_Init.c  ****     Stone_PWM_Init();
  54:Stone_Init.c  ****     
  55:Stone_Init.c  ****     Stone_Sequence_Init();
  56:Stone_Init.c  ****     
  57:Stone_Init.c  ****     /* Start Timer and PWM */
  58:Stone_Init.c  ****     Stone_PWM_Start();
  59:Stone_Init.c  ****     
  60:Stone_Init.c  ****     ms_isr_StartEx(MS_ISR);
  61:Stone_Init.c  ****     trigger_isr_StartEx(TRIGGER_ISR);
  62:Stone_Init.c  **** 	tc_isr_StartEx(TC_ISR); 
  63:Stone_Init.c  ****     
  64:Stone_Init.c  ****     
  65:Stone_Init.c  **** }
  66:Stone_Init.c  **** 
  67:Stone_Init.c  **** void StopStoneInterrupt(void)
  68:Stone_Init.c  **** {
  73              		.loc 1 68 0
  74              		.cfi_startproc
  75 0000 08B5     		push	{r3, lr}
  76              		.cfi_def_cfa_offset 8
  77              		.cfi_offset 3, -8
  78              		.cfi_offset 14, -4
  69:Stone_Init.c  ****     ms_isr_Stop();
  79              		.loc 1 69 0
  80 0002 FFF7FEFF 		bl	ms_isr_Stop
  81              	.LVL5:
  70:Stone_Init.c  ****     trigger_isr_Stop();
  82              		.loc 1 70 0
  83 0006 FFF7FEFF 		bl	trigger_isr_Stop
  84              	.LVL6:
  71:Stone_Init.c  **** 	tc_isr_Stop();  
  85              		.loc 1 71 0
  86 000a FFF7FEFF 		bl	tc_isr_Stop
  87              	.LVL7:
  72:Stone_Init.c  ****     
  73:Stone_Init.c  ****     /* Stop Timer and PWM */
  74:Stone_Init.c  ****     Stone_PWM_Stop();
  88              		.loc 1 74 0
  89 000e FFF7FEFF 		bl	Stone_PWM_Stop
  90              	.LVL8:
  75:Stone_Init.c  ****     
  76:Stone_Init.c  **** }
  91              		.loc 1 76 0
  92              		@ sp needed
  93 0012 08BD     		pop	{r3, pc}
  94              		.cfi_endproc
  95              	.LFE39:
ARM GAS  C:\Users\tiantiaf\AppData\Local\Temp\cc7Sutah.s 			page 4


  96              		.size	StopStoneInterrupt, .-StopStoneInterrupt
  97              		.global	__aeabi_idiv
  98              		.global	__aeabi_uidiv
  99              		.section	.text.Stone_Sequence_Init,"ax",%progbits
 100              		.align	2
 101              		.global	Stone_Sequence_Init
 102              		.code	16
 103              		.thumb_func
 104              		.type	Stone_Sequence_Init, %function
 105              	Stone_Sequence_Init:
 106              	.LFB40:
  77:Stone_Init.c  **** 
  78:Stone_Init.c  **** void Stone_Sequence_Init(void)
  79:Stone_Init.c  **** {
 107              		.loc 1 79 0
 108              		.cfi_startproc
 109 0000 F8B5     		push	{r3, r4, r5, r6, r7, lr}
 110              		.cfi_def_cfa_offset 24
 111              		.cfi_offset 3, -24
 112              		.cfi_offset 4, -20
 113              		.cfi_offset 5, -16
 114              		.cfi_offset 6, -12
 115              		.cfi_offset 7, -8
 116              		.cfi_offset 14, -4
  80:Stone_Init.c  ****     uint8 offset = Stone_Motor[3] - 50;
 117              		.loc 1 80 0
 118 0002 174B     		ldr	r3, .L14
 119 0004 DE78     		ldrb	r6, [r3, #3]
 120 0006 323E     		sub	r6, r6, #50
 121 0008 F6B2     		uxtb	r6, r6
 122              	.LVL9:
  81:Stone_Init.c  ****     uint8 i = 0;
  82:Stone_Init.c  ****     
  83:Stone_Init.c  ****     for( i = 0; i < PERIOD_PER_CYCLE_RUN; i++)
 123              		.loc 1 83 0
 124 000a 0024     		mov	r4, #0
 125 000c 24E0     		b	.L6
 126              	.LVL10:
 127              	.L13:
  84:Stone_Init.c  ****     {
  85:Stone_Init.c  ****         switch((Test[i] - 1) / 5)
 128              		.loc 1 85 0
 129 000e 154B     		ldr	r3, .L14+4
 130 0010 1D5D     		ldrb	r5, [r3, r4]
 131 0012 681E     		sub	r0, r5, #1
 132 0014 0521     		mov	r1, #5
 133 0016 FFF7FEFF 		bl	__aeabi_idiv
 134              	.LVL11:
 135 001a 0538     		sub	r0, r0, #5
 136 001c 0428     		cmp	r0, #4
 137 001e 17D8     		bhi	.L7
 138 0020 8000     		lsl	r0, r0, #2
 139 0022 114B     		ldr	r3, .L14+8
 140 0024 1B58     		ldr	r3, [r3, r0]
 141 0026 9F46     		mov	pc, r3
 142              		.section	.rodata
 143              		.align	2
ARM GAS  C:\Users\tiantiaf\AppData\Local\Temp\cc7Sutah.s 			page 5


 144              	.L9:
 145 0000 28000000 		.word	.L8
 146 0004 28000000 		.word	.L8
 147 0008 38000000 		.word	.L10
 148 000c 38000000 		.word	.L10
 149 0010 48000000 		.word	.L11
 150              		.section	.text.Stone_Sequence_Init
 151              	.L8:
  86:Stone_Init.c  ****         {
  87:Stone_Init.c  ****             case 5:
  88:Stone_Init.c  ****             case 6:
  89:Stone_Init.c  ****                Motor_Running_Sequence[i] = Test[i] + (offset / 3);
 152              		.loc 1 89 0
 153 0028 301C     		mov	r0, r6
 154 002a 0321     		mov	r1, #3
 155 002c FFF7FEFF 		bl	__aeabi_uidiv
 156              	.LVL12:
 157 0030 2D18     		add	r5, r5, r0
 158 0032 0E4B     		ldr	r3, .L14+12
 159 0034 1D55     		strb	r5, [r3, r4]
  90:Stone_Init.c  ****                break;
 160              		.loc 1 90 0
 161 0036 0DE0     		b	.L12
 162              	.L10:
  91:Stone_Init.c  ****             
  92:Stone_Init.c  ****             case 7:
  93:Stone_Init.c  ****             case 8:
  94:Stone_Init.c  ****                Motor_Running_Sequence[i] = Test[i] + (offset * 2) / 3;
 163              		.loc 1 94 0
 164 0038 7000     		lsl	r0, r6, #1
 165 003a 0321     		mov	r1, #3
 166 003c FFF7FEFF 		bl	__aeabi_idiv
 167              	.LVL13:
 168 0040 2D18     		add	r5, r5, r0
 169 0042 0A4B     		ldr	r3, .L14+12
 170 0044 1D55     		strb	r5, [r3, r4]
  95:Stone_Init.c  ****                break;
 171              		.loc 1 95 0
 172 0046 05E0     		b	.L12
 173              	.L11:
  96:Stone_Init.c  ****             
  97:Stone_Init.c  ****             case 9:
  98:Stone_Init.c  ****                Motor_Running_Sequence[i] = Test[i] + offset;
 174              		.loc 1 98 0
 175 0048 7519     		add	r5, r6, r5
 176 004a 084B     		ldr	r3, .L14+12
 177 004c 1D55     		strb	r5, [r3, r4]
  99:Stone_Init.c  ****                break;
 178              		.loc 1 99 0
 179 004e 01E0     		b	.L12
 180              	.L7:
 100:Stone_Init.c  ****             
 101:Stone_Init.c  ****             default:
 102:Stone_Init.c  ****                Motor_Running_Sequence[i] = Test[i];
 181              		.loc 1 102 0
 182 0050 064B     		ldr	r3, .L14+12
 183 0052 1D55     		strb	r5, [r3, r4]
ARM GAS  C:\Users\tiantiaf\AppData\Local\Temp\cc7Sutah.s 			page 6


 184              	.L12:
  83:Stone_Init.c  ****     {
 185              		.loc 1 83 0 discriminator 2
 186 0054 0134     		add	r4, r4, #1
 187              	.LVL14:
 188 0056 E4B2     		uxtb	r4, r4
 189              	.LVL15:
 190              	.L6:
  83:Stone_Init.c  ****     {
 191              		.loc 1 83 0 is_stmt 0 discriminator 1
 192 0058 3F2C     		cmp	r4, #63
 193 005a D8D9     		bls	.L13
 103:Stone_Init.c  ****                break;
 104:Stone_Init.c  ****         }
 105:Stone_Init.c  ****     } 
 106:Stone_Init.c  ****     
 107:Stone_Init.c  **** }
 194              		.loc 1 107 0 is_stmt 1
 195              		@ sp needed
 196              	.LVL16:
 197              	.LVL17:
 198 005c F8BD     		pop	{r3, r4, r5, r6, r7, pc}
 199              	.L15:
 200 005e C046     		.align	2
 201              	.L14:
 202 0060 00000000 		.word	Stone_Motor
 203 0064 00000000 		.word	Test
 204 0068 00000000 		.word	.L9
 205 006c 00000000 		.word	Motor_Running_Sequence
 206              		.cfi_endproc
 207              	.LFE40:
 208              		.size	Stone_Sequence_Init, .-Stone_Sequence_Init
 209              		.section	.text.InitStoneInterrupt,"ax",%progbits
 210              		.align	2
 211              		.global	InitStoneInterrupt
 212              		.code	16
 213              		.thumb_func
 214              		.type	InitStoneInterrupt, %function
 215              	InitStoneInterrupt:
 216              	.LFB38:
  49:Stone_Init.c  ****     uint16 timer_Period;
 217              		.loc 1 49 0
 218              		.cfi_startproc
 219 0000 08B5     		push	{r3, lr}
 220              		.cfi_def_cfa_offset 8
 221              		.cfi_offset 3, -8
 222              		.cfi_offset 14, -4
  53:Stone_Init.c  ****     
 223              		.loc 1 53 0
 224 0002 FFF7FEFF 		bl	Stone_PWM_Init
 225              	.LVL18:
  55:Stone_Init.c  ****     
 226              		.loc 1 55 0
 227 0006 FFF7FEFF 		bl	Stone_Sequence_Init
 228              	.LVL19:
  58:Stone_Init.c  ****     
 229              		.loc 1 58 0
ARM GAS  C:\Users\tiantiaf\AppData\Local\Temp\cc7Sutah.s 			page 7


 230 000a FFF7FEFF 		bl	Stone_PWM_Start
 231              	.LVL20:
  60:Stone_Init.c  ****     trigger_isr_StartEx(TRIGGER_ISR);
 232              		.loc 1 60 0
 233 000e 0548     		ldr	r0, .L17
 234 0010 FFF7FEFF 		bl	ms_isr_StartEx
 235              	.LVL21:
  61:Stone_Init.c  **** 	tc_isr_StartEx(TC_ISR); 
 236              		.loc 1 61 0
 237 0014 0448     		ldr	r0, .L17+4
 238 0016 FFF7FEFF 		bl	trigger_isr_StartEx
 239              	.LVL22:
  62:Stone_Init.c  ****     
 240              		.loc 1 62 0
 241 001a 0448     		ldr	r0, .L17+8
 242 001c FFF7FEFF 		bl	tc_isr_StartEx
 243              	.LVL23:
  65:Stone_Init.c  **** 
 244              		.loc 1 65 0
 245              		@ sp needed
 246 0020 08BD     		pop	{r3, pc}
 247              	.L18:
 248 0022 C046     		.align	2
 249              	.L17:
 250 0024 00000000 		.word	MS_ISR
 251 0028 00000000 		.word	TRIGGER_ISR
 252 002c 00000000 		.word	TC_ISR
 253              		.cfi_endproc
 254              	.LFE38:
 255              		.size	InitStoneInterrupt, .-InitStoneInterrupt
 256              		.text
 257              	.Letext0:
 258              		.file 2 "Generated_Source\\PSoC4/cytypes.h"
 259              		.file 3 "Generated_Source\\PSoC4/BLE_PULSE_Stack.h"
 260              		.file 4 "Generated_Source\\PSoC4/BLE_PULSE.h"
 261              		.file 5 "Stone_Init.h"
 262              		.file 6 "Stone_Motor.h"
 263              		.file 7 "Generated_Source\\PSoC4/LED.h"
 264              		.file 8 "Generated_Source\\PSoC4/Motor.h"
 265              		.file 9 "Generated_Source\\PSoC4/Timer_Pulse.h"
 266              		.file 10 "Generated_Source\\PSoC4/ms_isr.h"
 267              		.file 11 "Generated_Source\\PSoC4/trigger_isr.h"
 268              		.file 12 "Generated_Source\\PSoC4/tc_isr.h"
 269              		.file 13 "Generated_Source\\PSoC4/Stone_PWM.h"