ARM GAS  C:\Users\tiantiaf\AppData\Local\Temp\ccM0Tu1h.s 			page 1


   1              		.cpu cortex-m0
   2              		.fpu softvfp
   3              		.eabi_attribute 20, 1
   4              		.eabi_attribute 21, 1
   5              		.eabi_attribute 23, 3
   6              		.eabi_attribute 24, 1
   7              		.eabi_attribute 25, 1
   8              		.eabi_attribute 26, 1
   9              		.eabi_attribute 30, 1
  10              		.eabi_attribute 34, 0
  11              		.eabi_attribute 18, 4
  12              		.code	16
  13              		.file	"TS_Timer.c"
  14              		.text
  15              	.Ltext0:
  16              		.cfi_sections	.debug_frame
  17              		.section	.text.TS_Timer_Stop,"ax",%progbits
  18              		.align	2
  19              		.global	TS_Timer_Stop
  20              		.code	16
  21              		.thumb_func
  22              		.type	TS_Timer_Stop, %function
  23              	TS_Timer_Stop:
  24              	.LFB5:
  25              		.file 1 "Generated_Source\\PSoC4\\TS_Timer.c"
   1:Generated_Source\PSoC4/TS_Timer.c **** /*******************************************************************************
   2:Generated_Source\PSoC4/TS_Timer.c **** * File Name: TS_Timer.c
   3:Generated_Source\PSoC4/TS_Timer.c **** * Version 2.10
   4:Generated_Source\PSoC4/TS_Timer.c **** *
   5:Generated_Source\PSoC4/TS_Timer.c **** * Description:
   6:Generated_Source\PSoC4/TS_Timer.c **** *  This file provides the source code to the API for the TS_Timer
   7:Generated_Source\PSoC4/TS_Timer.c **** *  component
   8:Generated_Source\PSoC4/TS_Timer.c **** *
   9:Generated_Source\PSoC4/TS_Timer.c **** * Note:
  10:Generated_Source\PSoC4/TS_Timer.c **** *  None
  11:Generated_Source\PSoC4/TS_Timer.c **** *
  12:Generated_Source\PSoC4/TS_Timer.c **** ********************************************************************************
  13:Generated_Source\PSoC4/TS_Timer.c **** * Copyright 2013-2015, Cypress Semiconductor Corporation.  All rights reserved.
  14:Generated_Source\PSoC4/TS_Timer.c **** * You may use this file only in accordance with the license, terms, conditions,
  15:Generated_Source\PSoC4/TS_Timer.c **** * disclaimers, and limitations in the end user license agreement accompanying
  16:Generated_Source\PSoC4/TS_Timer.c **** * the software package with which this file was provided.
  17:Generated_Source\PSoC4/TS_Timer.c **** *******************************************************************************/
  18:Generated_Source\PSoC4/TS_Timer.c **** 
  19:Generated_Source\PSoC4/TS_Timer.c **** #include "TS_Timer.h"
  20:Generated_Source\PSoC4/TS_Timer.c **** 
  21:Generated_Source\PSoC4/TS_Timer.c **** uint8 TS_Timer_initVar = 0u;
  22:Generated_Source\PSoC4/TS_Timer.c **** 
  23:Generated_Source\PSoC4/TS_Timer.c **** 
  24:Generated_Source\PSoC4/TS_Timer.c **** /*******************************************************************************
  25:Generated_Source\PSoC4/TS_Timer.c **** * Function Name: TS_Timer_Init
  26:Generated_Source\PSoC4/TS_Timer.c **** ********************************************************************************
  27:Generated_Source\PSoC4/TS_Timer.c **** *
  28:Generated_Source\PSoC4/TS_Timer.c **** * Summary:
  29:Generated_Source\PSoC4/TS_Timer.c **** *  Initialize/Restore default TS_Timer configuration.
  30:Generated_Source\PSoC4/TS_Timer.c **** *
  31:Generated_Source\PSoC4/TS_Timer.c **** * Parameters:
  32:Generated_Source\PSoC4/TS_Timer.c **** *  None
ARM GAS  C:\Users\tiantiaf\AppData\Local\Temp\ccM0Tu1h.s 			page 2


  33:Generated_Source\PSoC4/TS_Timer.c **** *
  34:Generated_Source\PSoC4/TS_Timer.c **** * Return:
  35:Generated_Source\PSoC4/TS_Timer.c **** *  None
  36:Generated_Source\PSoC4/TS_Timer.c **** *
  37:Generated_Source\PSoC4/TS_Timer.c **** *******************************************************************************/
  38:Generated_Source\PSoC4/TS_Timer.c **** void TS_Timer_Init(void)
  39:Generated_Source\PSoC4/TS_Timer.c **** {
  40:Generated_Source\PSoC4/TS_Timer.c **** 
  41:Generated_Source\PSoC4/TS_Timer.c ****     /* Set values from customizer to CTRL */
  42:Generated_Source\PSoC4/TS_Timer.c ****     #if (TS_Timer__QUAD == TS_Timer_CONFIG)
  43:Generated_Source\PSoC4/TS_Timer.c ****         TS_Timer_CONTROL_REG = TS_Timer_CTRL_QUAD_BASE_CONFIG;
  44:Generated_Source\PSoC4/TS_Timer.c ****         
  45:Generated_Source\PSoC4/TS_Timer.c ****         /* Set values from customizer to CTRL1 */
  46:Generated_Source\PSoC4/TS_Timer.c ****         TS_Timer_TRIG_CONTROL1_REG  = TS_Timer_QUAD_SIGNALS_MODES;
  47:Generated_Source\PSoC4/TS_Timer.c **** 
  48:Generated_Source\PSoC4/TS_Timer.c ****         /* Set values from customizer to INTR */
  49:Generated_Source\PSoC4/TS_Timer.c ****         TS_Timer_SetInterruptMode(TS_Timer_QUAD_INTERRUPT_MASK);
  50:Generated_Source\PSoC4/TS_Timer.c ****         
  51:Generated_Source\PSoC4/TS_Timer.c ****          /* Set other values */
  52:Generated_Source\PSoC4/TS_Timer.c ****         TS_Timer_SetCounterMode(TS_Timer_COUNT_DOWN);
  53:Generated_Source\PSoC4/TS_Timer.c ****         TS_Timer_WritePeriod(TS_Timer_QUAD_PERIOD_INIT_VALUE);
  54:Generated_Source\PSoC4/TS_Timer.c ****         TS_Timer_WriteCounter(TS_Timer_QUAD_PERIOD_INIT_VALUE);
  55:Generated_Source\PSoC4/TS_Timer.c ****     #endif  /* (TS_Timer__QUAD == TS_Timer_CONFIG) */
  56:Generated_Source\PSoC4/TS_Timer.c **** 
  57:Generated_Source\PSoC4/TS_Timer.c ****     #if (TS_Timer__TIMER == TS_Timer_CONFIG)
  58:Generated_Source\PSoC4/TS_Timer.c ****         TS_Timer_CONTROL_REG = TS_Timer_CTRL_TIMER_BASE_CONFIG;
  59:Generated_Source\PSoC4/TS_Timer.c ****         
  60:Generated_Source\PSoC4/TS_Timer.c ****         /* Set values from customizer to CTRL1 */
  61:Generated_Source\PSoC4/TS_Timer.c ****         TS_Timer_TRIG_CONTROL1_REG  = TS_Timer_TIMER_SIGNALS_MODES;
  62:Generated_Source\PSoC4/TS_Timer.c ****     
  63:Generated_Source\PSoC4/TS_Timer.c ****         /* Set values from customizer to INTR */
  64:Generated_Source\PSoC4/TS_Timer.c ****         TS_Timer_SetInterruptMode(TS_Timer_TC_INTERRUPT_MASK);
  65:Generated_Source\PSoC4/TS_Timer.c ****         
  66:Generated_Source\PSoC4/TS_Timer.c ****         /* Set other values from customizer */
  67:Generated_Source\PSoC4/TS_Timer.c ****         TS_Timer_WritePeriod(TS_Timer_TC_PERIOD_VALUE );
  68:Generated_Source\PSoC4/TS_Timer.c **** 
  69:Generated_Source\PSoC4/TS_Timer.c ****         #if (TS_Timer__COMPARE == TS_Timer_TC_COMP_CAP_MODE)
  70:Generated_Source\PSoC4/TS_Timer.c ****             TS_Timer_WriteCompare(TS_Timer_TC_COMPARE_VALUE);
  71:Generated_Source\PSoC4/TS_Timer.c **** 
  72:Generated_Source\PSoC4/TS_Timer.c ****             #if (1u == TS_Timer_TC_COMPARE_SWAP)
  73:Generated_Source\PSoC4/TS_Timer.c ****                 TS_Timer_SetCompareSwap(1u);
  74:Generated_Source\PSoC4/TS_Timer.c ****                 TS_Timer_WriteCompareBuf(TS_Timer_TC_COMPARE_BUF_VALUE);
  75:Generated_Source\PSoC4/TS_Timer.c ****             #endif  /* (1u == TS_Timer_TC_COMPARE_SWAP) */
  76:Generated_Source\PSoC4/TS_Timer.c ****         #endif  /* (TS_Timer__COMPARE == TS_Timer_TC_COMP_CAP_MODE) */
  77:Generated_Source\PSoC4/TS_Timer.c **** 
  78:Generated_Source\PSoC4/TS_Timer.c ****         /* Initialize counter value */
  79:Generated_Source\PSoC4/TS_Timer.c ****         #if (TS_Timer_CY_TCPWM_V2 && TS_Timer_TIMER_UPDOWN_CNT_USED && !TS_Timer_CY_TCPWM_4000)
  80:Generated_Source\PSoC4/TS_Timer.c ****             TS_Timer_WriteCounter(1u);
  81:Generated_Source\PSoC4/TS_Timer.c ****         #elif(TS_Timer__COUNT_DOWN == TS_Timer_TC_COUNTER_MODE)
  82:Generated_Source\PSoC4/TS_Timer.c ****             TS_Timer_WriteCounter(TS_Timer_TC_PERIOD_VALUE);
  83:Generated_Source\PSoC4/TS_Timer.c ****         #else
  84:Generated_Source\PSoC4/TS_Timer.c ****             TS_Timer_WriteCounter(0u);
  85:Generated_Source\PSoC4/TS_Timer.c ****         #endif /* (TS_Timer_CY_TCPWM_V2 && TS_Timer_TIMER_UPDOWN_CNT_USED && !TS_Timer_CY_TCPWM_400
  86:Generated_Source\PSoC4/TS_Timer.c ****     #endif  /* (TS_Timer__TIMER == TS_Timer_CONFIG) */
  87:Generated_Source\PSoC4/TS_Timer.c **** 
  88:Generated_Source\PSoC4/TS_Timer.c ****     #if (TS_Timer__PWM_SEL == TS_Timer_CONFIG)
  89:Generated_Source\PSoC4/TS_Timer.c ****         TS_Timer_CONTROL_REG = TS_Timer_CTRL_PWM_BASE_CONFIG;
ARM GAS  C:\Users\tiantiaf\AppData\Local\Temp\ccM0Tu1h.s 			page 3


  90:Generated_Source\PSoC4/TS_Timer.c **** 
  91:Generated_Source\PSoC4/TS_Timer.c ****         #if (TS_Timer__PWM_PR == TS_Timer_PWM_MODE)
  92:Generated_Source\PSoC4/TS_Timer.c ****             TS_Timer_CONTROL_REG |= TS_Timer_CTRL_PWM_RUN_MODE;
  93:Generated_Source\PSoC4/TS_Timer.c ****             TS_Timer_WriteCounter(TS_Timer_PWM_PR_INIT_VALUE);
  94:Generated_Source\PSoC4/TS_Timer.c ****         #else
  95:Generated_Source\PSoC4/TS_Timer.c ****             TS_Timer_CONTROL_REG |= TS_Timer_CTRL_PWM_ALIGN | TS_Timer_CTRL_PWM_KILL_EVENT;
  96:Generated_Source\PSoC4/TS_Timer.c ****             
  97:Generated_Source\PSoC4/TS_Timer.c ****             /* Initialize counter value */
  98:Generated_Source\PSoC4/TS_Timer.c ****             #if (TS_Timer_CY_TCPWM_V2 && TS_Timer_PWM_UPDOWN_CNT_USED && !TS_Timer_CY_TCPWM_4000)
  99:Generated_Source\PSoC4/TS_Timer.c ****                 TS_Timer_WriteCounter(1u);
 100:Generated_Source\PSoC4/TS_Timer.c ****             #elif (TS_Timer__RIGHT == TS_Timer_PWM_ALIGN)
 101:Generated_Source\PSoC4/TS_Timer.c ****                 TS_Timer_WriteCounter(TS_Timer_PWM_PERIOD_VALUE);
 102:Generated_Source\PSoC4/TS_Timer.c ****             #else 
 103:Generated_Source\PSoC4/TS_Timer.c ****                 TS_Timer_WriteCounter(0u);
 104:Generated_Source\PSoC4/TS_Timer.c ****             #endif  /* (TS_Timer_CY_TCPWM_V2 && TS_Timer_PWM_UPDOWN_CNT_USED && !TS_Timer_CY_TCPWM_
 105:Generated_Source\PSoC4/TS_Timer.c ****         #endif  /* (TS_Timer__PWM_PR == TS_Timer_PWM_MODE) */
 106:Generated_Source\PSoC4/TS_Timer.c **** 
 107:Generated_Source\PSoC4/TS_Timer.c ****         #if (TS_Timer__PWM_DT == TS_Timer_PWM_MODE)
 108:Generated_Source\PSoC4/TS_Timer.c ****             TS_Timer_CONTROL_REG |= TS_Timer_CTRL_PWM_DEAD_TIME_CYCLE;
 109:Generated_Source\PSoC4/TS_Timer.c ****         #endif  /* (TS_Timer__PWM_DT == TS_Timer_PWM_MODE) */
 110:Generated_Source\PSoC4/TS_Timer.c **** 
 111:Generated_Source\PSoC4/TS_Timer.c ****         #if (TS_Timer__PWM == TS_Timer_PWM_MODE)
 112:Generated_Source\PSoC4/TS_Timer.c ****             TS_Timer_CONTROL_REG |= TS_Timer_CTRL_PWM_PRESCALER;
 113:Generated_Source\PSoC4/TS_Timer.c ****         #endif  /* (TS_Timer__PWM == TS_Timer_PWM_MODE) */
 114:Generated_Source\PSoC4/TS_Timer.c **** 
 115:Generated_Source\PSoC4/TS_Timer.c ****         /* Set values from customizer to CTRL1 */
 116:Generated_Source\PSoC4/TS_Timer.c ****         TS_Timer_TRIG_CONTROL1_REG  = TS_Timer_PWM_SIGNALS_MODES;
 117:Generated_Source\PSoC4/TS_Timer.c ****     
 118:Generated_Source\PSoC4/TS_Timer.c ****         /* Set values from customizer to INTR */
 119:Generated_Source\PSoC4/TS_Timer.c ****         TS_Timer_SetInterruptMode(TS_Timer_PWM_INTERRUPT_MASK);
 120:Generated_Source\PSoC4/TS_Timer.c **** 
 121:Generated_Source\PSoC4/TS_Timer.c ****         /* Set values from customizer to CTRL2 */
 122:Generated_Source\PSoC4/TS_Timer.c ****         #if (TS_Timer__PWM_PR == TS_Timer_PWM_MODE)
 123:Generated_Source\PSoC4/TS_Timer.c ****             TS_Timer_TRIG_CONTROL2_REG =
 124:Generated_Source\PSoC4/TS_Timer.c ****                     (TS_Timer_CC_MATCH_NO_CHANGE    |
 125:Generated_Source\PSoC4/TS_Timer.c ****                     TS_Timer_OVERLOW_NO_CHANGE      |
 126:Generated_Source\PSoC4/TS_Timer.c ****                     TS_Timer_UNDERFLOW_NO_CHANGE);
 127:Generated_Source\PSoC4/TS_Timer.c ****         #else
 128:Generated_Source\PSoC4/TS_Timer.c ****             #if (TS_Timer__LEFT == TS_Timer_PWM_ALIGN)
 129:Generated_Source\PSoC4/TS_Timer.c ****                 TS_Timer_TRIG_CONTROL2_REG = TS_Timer_PWM_MODE_LEFT;
 130:Generated_Source\PSoC4/TS_Timer.c ****             #endif  /* ( TS_Timer_PWM_LEFT == TS_Timer_PWM_ALIGN) */
 131:Generated_Source\PSoC4/TS_Timer.c **** 
 132:Generated_Source\PSoC4/TS_Timer.c ****             #if (TS_Timer__RIGHT == TS_Timer_PWM_ALIGN)
 133:Generated_Source\PSoC4/TS_Timer.c ****                 TS_Timer_TRIG_CONTROL2_REG = TS_Timer_PWM_MODE_RIGHT;
 134:Generated_Source\PSoC4/TS_Timer.c ****             #endif  /* ( TS_Timer_PWM_RIGHT == TS_Timer_PWM_ALIGN) */
 135:Generated_Source\PSoC4/TS_Timer.c **** 
 136:Generated_Source\PSoC4/TS_Timer.c ****             #if (TS_Timer__CENTER == TS_Timer_PWM_ALIGN)
 137:Generated_Source\PSoC4/TS_Timer.c ****                 TS_Timer_TRIG_CONTROL2_REG = TS_Timer_PWM_MODE_CENTER;
 138:Generated_Source\PSoC4/TS_Timer.c ****             #endif  /* ( TS_Timer_PWM_CENTER == TS_Timer_PWM_ALIGN) */
 139:Generated_Source\PSoC4/TS_Timer.c **** 
 140:Generated_Source\PSoC4/TS_Timer.c ****             #if (TS_Timer__ASYMMETRIC == TS_Timer_PWM_ALIGN)
 141:Generated_Source\PSoC4/TS_Timer.c ****                 TS_Timer_TRIG_CONTROL2_REG = TS_Timer_PWM_MODE_ASYM;
 142:Generated_Source\PSoC4/TS_Timer.c ****             #endif  /* (TS_Timer__ASYMMETRIC == TS_Timer_PWM_ALIGN) */
 143:Generated_Source\PSoC4/TS_Timer.c ****         #endif  /* (TS_Timer__PWM_PR == TS_Timer_PWM_MODE) */
 144:Generated_Source\PSoC4/TS_Timer.c **** 
 145:Generated_Source\PSoC4/TS_Timer.c ****         /* Set other values from customizer */
 146:Generated_Source\PSoC4/TS_Timer.c ****         TS_Timer_WritePeriod(TS_Timer_PWM_PERIOD_VALUE );
ARM GAS  C:\Users\tiantiaf\AppData\Local\Temp\ccM0Tu1h.s 			page 4


 147:Generated_Source\PSoC4/TS_Timer.c ****         TS_Timer_WriteCompare(TS_Timer_PWM_COMPARE_VALUE);
 148:Generated_Source\PSoC4/TS_Timer.c **** 
 149:Generated_Source\PSoC4/TS_Timer.c ****         #if (1u == TS_Timer_PWM_COMPARE_SWAP)
 150:Generated_Source\PSoC4/TS_Timer.c ****             TS_Timer_SetCompareSwap(1u);
 151:Generated_Source\PSoC4/TS_Timer.c ****             TS_Timer_WriteCompareBuf(TS_Timer_PWM_COMPARE_BUF_VALUE);
 152:Generated_Source\PSoC4/TS_Timer.c ****         #endif  /* (1u == TS_Timer_PWM_COMPARE_SWAP) */
 153:Generated_Source\PSoC4/TS_Timer.c **** 
 154:Generated_Source\PSoC4/TS_Timer.c ****         #if (1u == TS_Timer_PWM_PERIOD_SWAP)
 155:Generated_Source\PSoC4/TS_Timer.c ****             TS_Timer_SetPeriodSwap(1u);
 156:Generated_Source\PSoC4/TS_Timer.c ****             TS_Timer_WritePeriodBuf(TS_Timer_PWM_PERIOD_BUF_VALUE);
 157:Generated_Source\PSoC4/TS_Timer.c ****         #endif  /* (1u == TS_Timer_PWM_PERIOD_SWAP) */
 158:Generated_Source\PSoC4/TS_Timer.c ****     #endif  /* (TS_Timer__PWM_SEL == TS_Timer_CONFIG) */
 159:Generated_Source\PSoC4/TS_Timer.c ****     
 160:Generated_Source\PSoC4/TS_Timer.c **** }
 161:Generated_Source\PSoC4/TS_Timer.c **** 
 162:Generated_Source\PSoC4/TS_Timer.c **** 
 163:Generated_Source\PSoC4/TS_Timer.c **** /*******************************************************************************
 164:Generated_Source\PSoC4/TS_Timer.c **** * Function Name: TS_Timer_Enable
 165:Generated_Source\PSoC4/TS_Timer.c **** ********************************************************************************
 166:Generated_Source\PSoC4/TS_Timer.c **** *
 167:Generated_Source\PSoC4/TS_Timer.c **** * Summary:
 168:Generated_Source\PSoC4/TS_Timer.c **** *  Enables the TS_Timer.
 169:Generated_Source\PSoC4/TS_Timer.c **** *
 170:Generated_Source\PSoC4/TS_Timer.c **** * Parameters:
 171:Generated_Source\PSoC4/TS_Timer.c **** *  None
 172:Generated_Source\PSoC4/TS_Timer.c **** *
 173:Generated_Source\PSoC4/TS_Timer.c **** * Return:
 174:Generated_Source\PSoC4/TS_Timer.c **** *  None
 175:Generated_Source\PSoC4/TS_Timer.c **** *
 176:Generated_Source\PSoC4/TS_Timer.c **** *******************************************************************************/
 177:Generated_Source\PSoC4/TS_Timer.c **** void TS_Timer_Enable(void)
 178:Generated_Source\PSoC4/TS_Timer.c **** {
 179:Generated_Source\PSoC4/TS_Timer.c ****     uint8 enableInterrupts;
 180:Generated_Source\PSoC4/TS_Timer.c **** 
 181:Generated_Source\PSoC4/TS_Timer.c ****     enableInterrupts = CyEnterCriticalSection();
 182:Generated_Source\PSoC4/TS_Timer.c ****     TS_Timer_BLOCK_CONTROL_REG |= TS_Timer_MASK;
 183:Generated_Source\PSoC4/TS_Timer.c ****     CyExitCriticalSection(enableInterrupts);
 184:Generated_Source\PSoC4/TS_Timer.c **** 
 185:Generated_Source\PSoC4/TS_Timer.c ****     /* Start Timer or PWM if start input is absent */
 186:Generated_Source\PSoC4/TS_Timer.c ****     #if (TS_Timer__PWM_SEL == TS_Timer_CONFIG)
 187:Generated_Source\PSoC4/TS_Timer.c ****         #if (0u == TS_Timer_PWM_START_SIGNAL_PRESENT)
 188:Generated_Source\PSoC4/TS_Timer.c ****             TS_Timer_TriggerCommand(TS_Timer_MASK, TS_Timer_CMD_START);
 189:Generated_Source\PSoC4/TS_Timer.c ****         #endif /* (0u == TS_Timer_PWM_START_SIGNAL_PRESENT) */
 190:Generated_Source\PSoC4/TS_Timer.c ****     #endif /* (TS_Timer__PWM_SEL == TS_Timer_CONFIG) */
 191:Generated_Source\PSoC4/TS_Timer.c **** 
 192:Generated_Source\PSoC4/TS_Timer.c ****     #if (TS_Timer__TIMER == TS_Timer_CONFIG)
 193:Generated_Source\PSoC4/TS_Timer.c ****         #if (0u == TS_Timer_TC_START_SIGNAL_PRESENT)
 194:Generated_Source\PSoC4/TS_Timer.c ****             TS_Timer_TriggerCommand(TS_Timer_MASK, TS_Timer_CMD_START);
 195:Generated_Source\PSoC4/TS_Timer.c ****         #endif /* (0u == TS_Timer_TC_START_SIGNAL_PRESENT) */
 196:Generated_Source\PSoC4/TS_Timer.c ****     #endif /* (TS_Timer__TIMER == TS_Timer_CONFIG) */
 197:Generated_Source\PSoC4/TS_Timer.c ****     
 198:Generated_Source\PSoC4/TS_Timer.c ****     #if (TS_Timer__QUAD == TS_Timer_CONFIG)
 199:Generated_Source\PSoC4/TS_Timer.c ****         #if (0u != TS_Timer_QUAD_AUTO_START)
 200:Generated_Source\PSoC4/TS_Timer.c ****             TS_Timer_TriggerCommand(TS_Timer_MASK, TS_Timer_CMD_RELOAD);
 201:Generated_Source\PSoC4/TS_Timer.c ****         #endif /* (0u != TS_Timer_QUAD_AUTO_START) */
 202:Generated_Source\PSoC4/TS_Timer.c ****     #endif  /* (TS_Timer__QUAD == TS_Timer_CONFIG) */
 203:Generated_Source\PSoC4/TS_Timer.c **** }
ARM GAS  C:\Users\tiantiaf\AppData\Local\Temp\ccM0Tu1h.s 			page 5


 204:Generated_Source\PSoC4/TS_Timer.c **** 
 205:Generated_Source\PSoC4/TS_Timer.c **** 
 206:Generated_Source\PSoC4/TS_Timer.c **** /*******************************************************************************
 207:Generated_Source\PSoC4/TS_Timer.c **** * Function Name: TS_Timer_Start
 208:Generated_Source\PSoC4/TS_Timer.c **** ********************************************************************************
 209:Generated_Source\PSoC4/TS_Timer.c **** *
 210:Generated_Source\PSoC4/TS_Timer.c **** * Summary:
 211:Generated_Source\PSoC4/TS_Timer.c **** *  Initializes the TS_Timer with default customizer
 212:Generated_Source\PSoC4/TS_Timer.c **** *  values when called the first time and enables the TS_Timer.
 213:Generated_Source\PSoC4/TS_Timer.c **** *  For subsequent calls the configuration is left unchanged and the component is
 214:Generated_Source\PSoC4/TS_Timer.c **** *  just enabled.
 215:Generated_Source\PSoC4/TS_Timer.c **** *
 216:Generated_Source\PSoC4/TS_Timer.c **** * Parameters:
 217:Generated_Source\PSoC4/TS_Timer.c **** *  None
 218:Generated_Source\PSoC4/TS_Timer.c **** *
 219:Generated_Source\PSoC4/TS_Timer.c **** * Return:
 220:Generated_Source\PSoC4/TS_Timer.c **** *  None
 221:Generated_Source\PSoC4/TS_Timer.c **** *
 222:Generated_Source\PSoC4/TS_Timer.c **** * Global variables:
 223:Generated_Source\PSoC4/TS_Timer.c **** *  TS_Timer_initVar: global variable is used to indicate initial
 224:Generated_Source\PSoC4/TS_Timer.c **** *  configuration of this component.  The variable is initialized to zero and set
 225:Generated_Source\PSoC4/TS_Timer.c **** *  to 1 the first time TS_Timer_Start() is called. This allows
 226:Generated_Source\PSoC4/TS_Timer.c **** *  enabling/disabling a component without re-initialization in all subsequent
 227:Generated_Source\PSoC4/TS_Timer.c **** *  calls to the TS_Timer_Start() routine.
 228:Generated_Source\PSoC4/TS_Timer.c **** *
 229:Generated_Source\PSoC4/TS_Timer.c **** *******************************************************************************/
 230:Generated_Source\PSoC4/TS_Timer.c **** void TS_Timer_Start(void)
 231:Generated_Source\PSoC4/TS_Timer.c **** {
 232:Generated_Source\PSoC4/TS_Timer.c ****     if (0u == TS_Timer_initVar)
 233:Generated_Source\PSoC4/TS_Timer.c ****     {
 234:Generated_Source\PSoC4/TS_Timer.c ****         TS_Timer_Init();
 235:Generated_Source\PSoC4/TS_Timer.c ****         TS_Timer_initVar = 1u;
 236:Generated_Source\PSoC4/TS_Timer.c ****     }
 237:Generated_Source\PSoC4/TS_Timer.c **** 
 238:Generated_Source\PSoC4/TS_Timer.c ****     TS_Timer_Enable();
 239:Generated_Source\PSoC4/TS_Timer.c **** }
 240:Generated_Source\PSoC4/TS_Timer.c **** 
 241:Generated_Source\PSoC4/TS_Timer.c **** 
 242:Generated_Source\PSoC4/TS_Timer.c **** /*******************************************************************************
 243:Generated_Source\PSoC4/TS_Timer.c **** * Function Name: TS_Timer_Stop
 244:Generated_Source\PSoC4/TS_Timer.c **** ********************************************************************************
 245:Generated_Source\PSoC4/TS_Timer.c **** *
 246:Generated_Source\PSoC4/TS_Timer.c **** * Summary:
 247:Generated_Source\PSoC4/TS_Timer.c **** *  Disables the TS_Timer.
 248:Generated_Source\PSoC4/TS_Timer.c **** *
 249:Generated_Source\PSoC4/TS_Timer.c **** * Parameters:
 250:Generated_Source\PSoC4/TS_Timer.c **** *  None
 251:Generated_Source\PSoC4/TS_Timer.c **** *
 252:Generated_Source\PSoC4/TS_Timer.c **** * Return:
 253:Generated_Source\PSoC4/TS_Timer.c **** *  None
 254:Generated_Source\PSoC4/TS_Timer.c **** *
 255:Generated_Source\PSoC4/TS_Timer.c **** *******************************************************************************/
 256:Generated_Source\PSoC4/TS_Timer.c **** void TS_Timer_Stop(void)
 257:Generated_Source\PSoC4/TS_Timer.c **** {
  26              		.loc 1 257 0
  27              		.cfi_startproc
  28 0000 08B5     		push	{r3, lr}
ARM GAS  C:\Users\tiantiaf\AppData\Local\Temp\ccM0Tu1h.s 			page 6


  29              		.cfi_def_cfa_offset 8
  30              		.cfi_offset 3, -8
  31              		.cfi_offset 14, -4
 258:Generated_Source\PSoC4/TS_Timer.c ****     uint8 enableInterrupts;
 259:Generated_Source\PSoC4/TS_Timer.c **** 
 260:Generated_Source\PSoC4/TS_Timer.c ****     enableInterrupts = CyEnterCriticalSection();
  32              		.loc 1 260 0
  33 0002 FFF7FEFF 		bl	CyEnterCriticalSection
  34              	.LVL0:
 261:Generated_Source\PSoC4/TS_Timer.c **** 
 262:Generated_Source\PSoC4/TS_Timer.c ****     TS_Timer_BLOCK_CONTROL_REG &= (uint32)~TS_Timer_MASK;
  35              		.loc 1 262 0
  36 0006 044A     		ldr	r2, .L2
  37 0008 1368     		ldr	r3, [r2]
  38 000a 0121     		mov	r1, #1
  39 000c 8B43     		bic	r3, r1
  40 000e 1360     		str	r3, [r2]
 263:Generated_Source\PSoC4/TS_Timer.c **** 
 264:Generated_Source\PSoC4/TS_Timer.c ****     CyExitCriticalSection(enableInterrupts);
  41              		.loc 1 264 0
  42 0010 FFF7FEFF 		bl	CyExitCriticalSection
  43              	.LVL1:
 265:Generated_Source\PSoC4/TS_Timer.c **** }
  44              		.loc 1 265 0
  45              		@ sp needed
  46 0014 08BD     		pop	{r3, pc}
  47              	.L3:
  48 0016 C046     		.align	2
  49              	.L2:
  50 0018 00002040 		.word	1075838976
  51              		.cfi_endproc
  52              	.LFE5:
  53              		.size	TS_Timer_Stop, .-TS_Timer_Stop
  54              		.section	.text.TS_Timer_SetMode,"ax",%progbits
  55              		.align	2
  56              		.global	TS_Timer_SetMode
  57              		.code	16
  58              		.thumb_func
  59              		.type	TS_Timer_SetMode, %function
  60              	TS_Timer_SetMode:
  61              	.LFB6:
 266:Generated_Source\PSoC4/TS_Timer.c **** 
 267:Generated_Source\PSoC4/TS_Timer.c **** 
 268:Generated_Source\PSoC4/TS_Timer.c **** /*******************************************************************************
 269:Generated_Source\PSoC4/TS_Timer.c **** * Function Name: TS_Timer_SetMode
 270:Generated_Source\PSoC4/TS_Timer.c **** ********************************************************************************
 271:Generated_Source\PSoC4/TS_Timer.c **** *
 272:Generated_Source\PSoC4/TS_Timer.c **** * Summary:
 273:Generated_Source\PSoC4/TS_Timer.c **** *  Sets the operation mode of the TS_Timer. This function is used when
 274:Generated_Source\PSoC4/TS_Timer.c **** *  configured as a generic TS_Timer and the actual mode of operation is
 275:Generated_Source\PSoC4/TS_Timer.c **** *  set at runtime. The mode must be set while the component is disabled.
 276:Generated_Source\PSoC4/TS_Timer.c **** *
 277:Generated_Source\PSoC4/TS_Timer.c **** * Parameters:
 278:Generated_Source\PSoC4/TS_Timer.c **** *  mode: Mode for the TS_Timer to operate in
 279:Generated_Source\PSoC4/TS_Timer.c **** *   Values:
 280:Generated_Source\PSoC4/TS_Timer.c **** *   - TS_Timer_MODE_TIMER_COMPARE - Timer / Counter with
 281:Generated_Source\PSoC4/TS_Timer.c **** *                                                 compare capability
ARM GAS  C:\Users\tiantiaf\AppData\Local\Temp\ccM0Tu1h.s 			page 7


 282:Generated_Source\PSoC4/TS_Timer.c **** *         - TS_Timer_MODE_TIMER_CAPTURE - Timer / Counter with
 283:Generated_Source\PSoC4/TS_Timer.c **** *                                                 capture capability
 284:Generated_Source\PSoC4/TS_Timer.c **** *         - TS_Timer_MODE_QUAD - Quadrature decoder
 285:Generated_Source\PSoC4/TS_Timer.c **** *         - TS_Timer_MODE_PWM - PWM
 286:Generated_Source\PSoC4/TS_Timer.c **** *         - TS_Timer_MODE_PWM_DT - PWM with dead time
 287:Generated_Source\PSoC4/TS_Timer.c **** *         - TS_Timer_MODE_PWM_PR - PWM with pseudo random capability
 288:Generated_Source\PSoC4/TS_Timer.c **** *
 289:Generated_Source\PSoC4/TS_Timer.c **** * Return:
 290:Generated_Source\PSoC4/TS_Timer.c **** *  None
 291:Generated_Source\PSoC4/TS_Timer.c **** *
 292:Generated_Source\PSoC4/TS_Timer.c **** *******************************************************************************/
 293:Generated_Source\PSoC4/TS_Timer.c **** void TS_Timer_SetMode(uint32 mode)
 294:Generated_Source\PSoC4/TS_Timer.c **** {
  62              		.loc 1 294 0
  63              		.cfi_startproc
  64              	.LVL2:
  65 0000 10B5     		push	{r4, lr}
  66              		.cfi_def_cfa_offset 8
  67              		.cfi_offset 4, -8
  68              		.cfi_offset 14, -4
  69 0002 041C     		mov	r4, r0
 295:Generated_Source\PSoC4/TS_Timer.c ****     uint8 enableInterrupts;
 296:Generated_Source\PSoC4/TS_Timer.c **** 
 297:Generated_Source\PSoC4/TS_Timer.c ****     enableInterrupts = CyEnterCriticalSection();
  70              		.loc 1 297 0
  71 0004 FFF7FEFF 		bl	CyEnterCriticalSection
  72              	.LVL3:
 298:Generated_Source\PSoC4/TS_Timer.c **** 
 299:Generated_Source\PSoC4/TS_Timer.c ****     TS_Timer_CONTROL_REG &= (uint32)~TS_Timer_MODE_MASK;
  73              		.loc 1 299 0
  74 0008 054B     		ldr	r3, .L5
  75 000a 1968     		ldr	r1, [r3]
  76 000c 054A     		ldr	r2, .L5+4
  77 000e 0A40     		and	r2, r1
  78 0010 1A60     		str	r2, [r3]
 300:Generated_Source\PSoC4/TS_Timer.c ****     TS_Timer_CONTROL_REG |= mode;
  79              		.loc 1 300 0
  80 0012 1A68     		ldr	r2, [r3]
  81 0014 1443     		orr	r4, r2
  82              	.LVL4:
  83 0016 1C60     		str	r4, [r3]
 301:Generated_Source\PSoC4/TS_Timer.c **** 
 302:Generated_Source\PSoC4/TS_Timer.c ****     CyExitCriticalSection(enableInterrupts);
  84              		.loc 1 302 0
  85 0018 FFF7FEFF 		bl	CyExitCriticalSection
  86              	.LVL5:
 303:Generated_Source\PSoC4/TS_Timer.c **** }
  87              		.loc 1 303 0
  88              		@ sp needed
  89 001c 10BD     		pop	{r4, pc}
  90              	.L6:
  91 001e C046     		.align	2
  92              	.L5:
  93 0020 00012040 		.word	1075839232
  94 0024 FFFFFFF8 		.word	-117440513
  95              		.cfi_endproc
  96              	.LFE6:
ARM GAS  C:\Users\tiantiaf\AppData\Local\Temp\ccM0Tu1h.s 			page 8


  97              		.size	TS_Timer_SetMode, .-TS_Timer_SetMode
  98              		.section	.text.TS_Timer_SetQDMode,"ax",%progbits
  99              		.align	2
 100              		.global	TS_Timer_SetQDMode
 101              		.code	16
 102              		.thumb_func
 103              		.type	TS_Timer_SetQDMode, %function
 104              	TS_Timer_SetQDMode:
 105              	.LFB7:
 304:Generated_Source\PSoC4/TS_Timer.c **** 
 305:Generated_Source\PSoC4/TS_Timer.c **** 
 306:Generated_Source\PSoC4/TS_Timer.c **** /*******************************************************************************
 307:Generated_Source\PSoC4/TS_Timer.c **** * Function Name: TS_Timer_SetQDMode
 308:Generated_Source\PSoC4/TS_Timer.c **** ********************************************************************************
 309:Generated_Source\PSoC4/TS_Timer.c **** *
 310:Generated_Source\PSoC4/TS_Timer.c **** * Summary:
 311:Generated_Source\PSoC4/TS_Timer.c **** *  Sets the the Quadrature Decoder to one of the 3 supported modes.
 312:Generated_Source\PSoC4/TS_Timer.c **** *  Its functionality is only applicable to Quadrature Decoder operation.
 313:Generated_Source\PSoC4/TS_Timer.c **** *
 314:Generated_Source\PSoC4/TS_Timer.c **** * Parameters:
 315:Generated_Source\PSoC4/TS_Timer.c **** *  qdMode: Quadrature Decoder mode
 316:Generated_Source\PSoC4/TS_Timer.c **** *   Values:
 317:Generated_Source\PSoC4/TS_Timer.c **** *         - TS_Timer_MODE_X1 - Counts on phi 1 rising
 318:Generated_Source\PSoC4/TS_Timer.c **** *         - TS_Timer_MODE_X2 - Counts on both edges of phi1 (2x faster)
 319:Generated_Source\PSoC4/TS_Timer.c **** *         - TS_Timer_MODE_X4 - Counts on both edges of phi1 and phi2
 320:Generated_Source\PSoC4/TS_Timer.c **** *                                        (4x faster)
 321:Generated_Source\PSoC4/TS_Timer.c **** *
 322:Generated_Source\PSoC4/TS_Timer.c **** * Return:
 323:Generated_Source\PSoC4/TS_Timer.c **** *  None
 324:Generated_Source\PSoC4/TS_Timer.c **** *
 325:Generated_Source\PSoC4/TS_Timer.c **** *******************************************************************************/
 326:Generated_Source\PSoC4/TS_Timer.c **** void TS_Timer_SetQDMode(uint32 qdMode)
 327:Generated_Source\PSoC4/TS_Timer.c **** {
 106              		.loc 1 327 0
 107              		.cfi_startproc
 108              	.LVL6:
 109 0000 10B5     		push	{r4, lr}
 110              		.cfi_def_cfa_offset 8
 111              		.cfi_offset 4, -8
 112              		.cfi_offset 14, -4
 113 0002 041C     		mov	r4, r0
 328:Generated_Source\PSoC4/TS_Timer.c ****     uint8 enableInterrupts;
 329:Generated_Source\PSoC4/TS_Timer.c **** 
 330:Generated_Source\PSoC4/TS_Timer.c ****     enableInterrupts = CyEnterCriticalSection();
 114              		.loc 1 330 0
 115 0004 FFF7FEFF 		bl	CyEnterCriticalSection
 116              	.LVL7:
 331:Generated_Source\PSoC4/TS_Timer.c **** 
 332:Generated_Source\PSoC4/TS_Timer.c ****     TS_Timer_CONTROL_REG &= (uint32)~TS_Timer_QUAD_MODE_MASK;
 117              		.loc 1 332 0
 118 0008 054B     		ldr	r3, .L8
 119 000a 1968     		ldr	r1, [r3]
 120 000c 054A     		ldr	r2, .L8+4
 121 000e 0A40     		and	r2, r1
 122 0010 1A60     		str	r2, [r3]
 333:Generated_Source\PSoC4/TS_Timer.c ****     TS_Timer_CONTROL_REG |= qdMode;
 123              		.loc 1 333 0
ARM GAS  C:\Users\tiantiaf\AppData\Local\Temp\ccM0Tu1h.s 			page 9


 124 0012 1A68     		ldr	r2, [r3]
 125 0014 1443     		orr	r4, r2
 126              	.LVL8:
 127 0016 1C60     		str	r4, [r3]
 334:Generated_Source\PSoC4/TS_Timer.c **** 
 335:Generated_Source\PSoC4/TS_Timer.c ****     CyExitCriticalSection(enableInterrupts);
 128              		.loc 1 335 0
 129 0018 FFF7FEFF 		bl	CyExitCriticalSection
 130              	.LVL9:
 336:Generated_Source\PSoC4/TS_Timer.c **** }
 131              		.loc 1 336 0
 132              		@ sp needed
 133 001c 10BD     		pop	{r4, pc}
 134              	.L9:
 135 001e C046     		.align	2
 136              	.L8:
 137 0020 00012040 		.word	1075839232
 138 0024 FFFF8FFF 		.word	-7340033
 139              		.cfi_endproc
 140              	.LFE7:
 141              		.size	TS_Timer_SetQDMode, .-TS_Timer_SetQDMode
 142              		.section	.text.TS_Timer_SetPrescaler,"ax",%progbits
 143              		.align	2
 144              		.global	TS_Timer_SetPrescaler
 145              		.code	16
 146              		.thumb_func
 147              		.type	TS_Timer_SetPrescaler, %function
 148              	TS_Timer_SetPrescaler:
 149              	.LFB8:
 337:Generated_Source\PSoC4/TS_Timer.c **** 
 338:Generated_Source\PSoC4/TS_Timer.c **** 
 339:Generated_Source\PSoC4/TS_Timer.c **** /*******************************************************************************
 340:Generated_Source\PSoC4/TS_Timer.c **** * Function Name: TS_Timer_SetPrescaler
 341:Generated_Source\PSoC4/TS_Timer.c **** ********************************************************************************
 342:Generated_Source\PSoC4/TS_Timer.c **** *
 343:Generated_Source\PSoC4/TS_Timer.c **** * Summary:
 344:Generated_Source\PSoC4/TS_Timer.c **** *  Sets the prescaler value that is applied to the clock input.  Not applicable
 345:Generated_Source\PSoC4/TS_Timer.c **** *  to a PWM with the dead time mode or Quadrature Decoder mode.
 346:Generated_Source\PSoC4/TS_Timer.c **** *
 347:Generated_Source\PSoC4/TS_Timer.c **** * Parameters:
 348:Generated_Source\PSoC4/TS_Timer.c **** *  prescaler: Prescaler divider value
 349:Generated_Source\PSoC4/TS_Timer.c **** *   Values:
 350:Generated_Source\PSoC4/TS_Timer.c **** *         - TS_Timer_PRESCALE_DIVBY1    - Divide by 1 (no prescaling)
 351:Generated_Source\PSoC4/TS_Timer.c **** *         - TS_Timer_PRESCALE_DIVBY2    - Divide by 2
 352:Generated_Source\PSoC4/TS_Timer.c **** *         - TS_Timer_PRESCALE_DIVBY4    - Divide by 4
 353:Generated_Source\PSoC4/TS_Timer.c **** *         - TS_Timer_PRESCALE_DIVBY8    - Divide by 8
 354:Generated_Source\PSoC4/TS_Timer.c **** *         - TS_Timer_PRESCALE_DIVBY16   - Divide by 16
 355:Generated_Source\PSoC4/TS_Timer.c **** *         - TS_Timer_PRESCALE_DIVBY32   - Divide by 32
 356:Generated_Source\PSoC4/TS_Timer.c **** *         - TS_Timer_PRESCALE_DIVBY64   - Divide by 64
 357:Generated_Source\PSoC4/TS_Timer.c **** *         - TS_Timer_PRESCALE_DIVBY128  - Divide by 128
 358:Generated_Source\PSoC4/TS_Timer.c **** *
 359:Generated_Source\PSoC4/TS_Timer.c **** * Return:
 360:Generated_Source\PSoC4/TS_Timer.c **** *  None
 361:Generated_Source\PSoC4/TS_Timer.c **** *
 362:Generated_Source\PSoC4/TS_Timer.c **** *******************************************************************************/
 363:Generated_Source\PSoC4/TS_Timer.c **** void TS_Timer_SetPrescaler(uint32 prescaler)
 364:Generated_Source\PSoC4/TS_Timer.c **** {
ARM GAS  C:\Users\tiantiaf\AppData\Local\Temp\ccM0Tu1h.s 			page 10


 150              		.loc 1 364 0
 151              		.cfi_startproc
 152              	.LVL10:
 153 0000 10B5     		push	{r4, lr}
 154              		.cfi_def_cfa_offset 8
 155              		.cfi_offset 4, -8
 156              		.cfi_offset 14, -4
 157 0002 041C     		mov	r4, r0
 365:Generated_Source\PSoC4/TS_Timer.c ****     uint8 enableInterrupts;
 366:Generated_Source\PSoC4/TS_Timer.c **** 
 367:Generated_Source\PSoC4/TS_Timer.c ****     enableInterrupts = CyEnterCriticalSection();
 158              		.loc 1 367 0
 159 0004 FFF7FEFF 		bl	CyEnterCriticalSection
 160              	.LVL11:
 368:Generated_Source\PSoC4/TS_Timer.c **** 
 369:Generated_Source\PSoC4/TS_Timer.c ****     TS_Timer_CONTROL_REG &= (uint32)~TS_Timer_PRESCALER_MASK;
 161              		.loc 1 369 0
 162 0008 054B     		ldr	r3, .L11
 163 000a 1968     		ldr	r1, [r3]
 164 000c 054A     		ldr	r2, .L11+4
 165 000e 0A40     		and	r2, r1
 166 0010 1A60     		str	r2, [r3]
 370:Generated_Source\PSoC4/TS_Timer.c ****     TS_Timer_CONTROL_REG |= prescaler;
 167              		.loc 1 370 0
 168 0012 1A68     		ldr	r2, [r3]
 169 0014 1443     		orr	r4, r2
 170              	.LVL12:
 171 0016 1C60     		str	r4, [r3]
 371:Generated_Source\PSoC4/TS_Timer.c **** 
 372:Generated_Source\PSoC4/TS_Timer.c ****     CyExitCriticalSection(enableInterrupts);
 172              		.loc 1 372 0
 173 0018 FFF7FEFF 		bl	CyExitCriticalSection
 174              	.LVL13:
 373:Generated_Source\PSoC4/TS_Timer.c **** }
 175              		.loc 1 373 0
 176              		@ sp needed
 177 001c 10BD     		pop	{r4, pc}
 178              	.L12:
 179 001e C046     		.align	2
 180              	.L11:
 181 0020 00012040 		.word	1075839232
 182 0024 FF00FFFF 		.word	-65281
 183              		.cfi_endproc
 184              	.LFE8:
 185              		.size	TS_Timer_SetPrescaler, .-TS_Timer_SetPrescaler
 186              		.section	.text.TS_Timer_SetOneShot,"ax",%progbits
 187              		.align	2
 188              		.global	TS_Timer_SetOneShot
 189              		.code	16
 190              		.thumb_func
 191              		.type	TS_Timer_SetOneShot, %function
 192              	TS_Timer_SetOneShot:
 193              	.LFB9:
 374:Generated_Source\PSoC4/TS_Timer.c **** 
 375:Generated_Source\PSoC4/TS_Timer.c **** 
 376:Generated_Source\PSoC4/TS_Timer.c **** /*******************************************************************************
 377:Generated_Source\PSoC4/TS_Timer.c **** * Function Name: TS_Timer_SetOneShot
ARM GAS  C:\Users\tiantiaf\AppData\Local\Temp\ccM0Tu1h.s 			page 11


 378:Generated_Source\PSoC4/TS_Timer.c **** ********************************************************************************
 379:Generated_Source\PSoC4/TS_Timer.c **** *
 380:Generated_Source\PSoC4/TS_Timer.c **** * Summary:
 381:Generated_Source\PSoC4/TS_Timer.c **** *  Writes the register that controls whether the TS_Timer runs
 382:Generated_Source\PSoC4/TS_Timer.c **** *  continuously or stops when terminal count is reached.  By default the
 383:Generated_Source\PSoC4/TS_Timer.c **** *  TS_Timer operates in the continuous mode.
 384:Generated_Source\PSoC4/TS_Timer.c **** *
 385:Generated_Source\PSoC4/TS_Timer.c **** * Parameters:
 386:Generated_Source\PSoC4/TS_Timer.c **** *  oneShotEnable
 387:Generated_Source\PSoC4/TS_Timer.c **** *   Values:
 388:Generated_Source\PSoC4/TS_Timer.c **** *     - 0 - Continuous
 389:Generated_Source\PSoC4/TS_Timer.c **** *     - 1 - Enable One Shot
 390:Generated_Source\PSoC4/TS_Timer.c **** *
 391:Generated_Source\PSoC4/TS_Timer.c **** * Return:
 392:Generated_Source\PSoC4/TS_Timer.c **** *  None
 393:Generated_Source\PSoC4/TS_Timer.c **** *
 394:Generated_Source\PSoC4/TS_Timer.c **** *******************************************************************************/
 395:Generated_Source\PSoC4/TS_Timer.c **** void TS_Timer_SetOneShot(uint32 oneShotEnable)
 396:Generated_Source\PSoC4/TS_Timer.c **** {
 194              		.loc 1 396 0
 195              		.cfi_startproc
 196              	.LVL14:
 197 0000 10B5     		push	{r4, lr}
 198              		.cfi_def_cfa_offset 8
 199              		.cfi_offset 4, -8
 200              		.cfi_offset 14, -4
 201 0002 041C     		mov	r4, r0
 397:Generated_Source\PSoC4/TS_Timer.c ****     uint8 enableInterrupts;
 398:Generated_Source\PSoC4/TS_Timer.c **** 
 399:Generated_Source\PSoC4/TS_Timer.c ****     enableInterrupts = CyEnterCriticalSection();
 202              		.loc 1 399 0
 203 0004 FFF7FEFF 		bl	CyEnterCriticalSection
 204              	.LVL15:
 400:Generated_Source\PSoC4/TS_Timer.c **** 
 401:Generated_Source\PSoC4/TS_Timer.c ****     TS_Timer_CONTROL_REG &= (uint32)~TS_Timer_ONESHOT_MASK;
 205              		.loc 1 401 0
 206 0008 064B     		ldr	r3, .L14
 207 000a 1968     		ldr	r1, [r3]
 208 000c 064A     		ldr	r2, .L14+4
 209 000e 0A40     		and	r2, r1
 210 0010 1A60     		str	r2, [r3]
 402:Generated_Source\PSoC4/TS_Timer.c ****     TS_Timer_CONTROL_REG |= ((uint32)((oneShotEnable & TS_Timer_1BIT_MASK) <<
 211              		.loc 1 402 0
 212 0012 1A68     		ldr	r2, [r3]
 213 0014 0121     		mov	r1, #1
 214 0016 0C40     		and	r4, r1
 215              	.LVL16:
 216 0018 A404     		lsl	r4, r4, #18
 217 001a 1443     		orr	r4, r2
 218 001c 1C60     		str	r4, [r3]
 403:Generated_Source\PSoC4/TS_Timer.c ****                                                                TS_Timer_ONESHOT_SHIFT));
 404:Generated_Source\PSoC4/TS_Timer.c **** 
 405:Generated_Source\PSoC4/TS_Timer.c ****     CyExitCriticalSection(enableInterrupts);
 219              		.loc 1 405 0
 220 001e FFF7FEFF 		bl	CyExitCriticalSection
 221              	.LVL17:
 406:Generated_Source\PSoC4/TS_Timer.c **** }
ARM GAS  C:\Users\tiantiaf\AppData\Local\Temp\ccM0Tu1h.s 			page 12


 222              		.loc 1 406 0
 223              		@ sp needed
 224 0022 10BD     		pop	{r4, pc}
 225              	.L15:
 226              		.align	2
 227              	.L14:
 228 0024 00012040 		.word	1075839232
 229 0028 FFFFFBFF 		.word	-262145
 230              		.cfi_endproc
 231              	.LFE9:
 232              		.size	TS_Timer_SetOneShot, .-TS_Timer_SetOneShot
 233              		.section	.text.TS_Timer_SetPWMMode,"ax",%progbits
 234              		.align	2
 235              		.global	TS_Timer_SetPWMMode
 236              		.code	16
 237              		.thumb_func
 238              		.type	TS_Timer_SetPWMMode, %function
 239              	TS_Timer_SetPWMMode:
 240              	.LFB10:
 407:Generated_Source\PSoC4/TS_Timer.c **** 
 408:Generated_Source\PSoC4/TS_Timer.c **** 
 409:Generated_Source\PSoC4/TS_Timer.c **** /*******************************************************************************
 410:Generated_Source\PSoC4/TS_Timer.c **** * Function Name: TS_Timer_SetPWMMode
 411:Generated_Source\PSoC4/TS_Timer.c **** ********************************************************************************
 412:Generated_Source\PSoC4/TS_Timer.c **** *
 413:Generated_Source\PSoC4/TS_Timer.c **** * Summary:
 414:Generated_Source\PSoC4/TS_Timer.c **** *  Writes the control register that determines what mode of operation the PWM
 415:Generated_Source\PSoC4/TS_Timer.c **** *  output lines are driven in.  There is a setting for what to do on a
 416:Generated_Source\PSoC4/TS_Timer.c **** *  comparison match (CC_MATCH), on an overflow (OVERFLOW) and on an underflow
 417:Generated_Source\PSoC4/TS_Timer.c **** *  (UNDERFLOW).  The value for each of the three must be ORed together to form
 418:Generated_Source\PSoC4/TS_Timer.c **** *  the mode.
 419:Generated_Source\PSoC4/TS_Timer.c **** *
 420:Generated_Source\PSoC4/TS_Timer.c **** * Parameters:
 421:Generated_Source\PSoC4/TS_Timer.c **** *  modeMask: A combination of three mode settings.  Mask must include a value
 422:Generated_Source\PSoC4/TS_Timer.c **** *  for each of the three or use one of the preconfigured PWM settings.
 423:Generated_Source\PSoC4/TS_Timer.c **** *   Values:
 424:Generated_Source\PSoC4/TS_Timer.c **** *     - CC_MATCH_SET        - Set on comparison match
 425:Generated_Source\PSoC4/TS_Timer.c **** *     - CC_MATCH_CLEAR      - Clear on comparison match
 426:Generated_Source\PSoC4/TS_Timer.c **** *     - CC_MATCH_INVERT     - Invert on comparison match
 427:Generated_Source\PSoC4/TS_Timer.c **** *     - CC_MATCH_NO_CHANGE  - No change on comparison match
 428:Generated_Source\PSoC4/TS_Timer.c **** *     - OVERLOW_SET         - Set on overflow
 429:Generated_Source\PSoC4/TS_Timer.c **** *     - OVERLOW_CLEAR       - Clear on  overflow
 430:Generated_Source\PSoC4/TS_Timer.c **** *     - OVERLOW_INVERT      - Invert on overflow
 431:Generated_Source\PSoC4/TS_Timer.c **** *     - OVERLOW_NO_CHANGE   - No change on overflow
 432:Generated_Source\PSoC4/TS_Timer.c **** *     - UNDERFLOW_SET       - Set on underflow
 433:Generated_Source\PSoC4/TS_Timer.c **** *     - UNDERFLOW_CLEAR     - Clear on underflow
 434:Generated_Source\PSoC4/TS_Timer.c **** *     - UNDERFLOW_INVERT    - Invert on underflow
 435:Generated_Source\PSoC4/TS_Timer.c **** *     - UNDERFLOW_NO_CHANGE - No change on underflow
 436:Generated_Source\PSoC4/TS_Timer.c **** *     - PWM_MODE_LEFT       - Setting for left aligned PWM.  Should be combined
 437:Generated_Source\PSoC4/TS_Timer.c **** *                             with up counting mode
 438:Generated_Source\PSoC4/TS_Timer.c **** *     - PWM_MODE_RIGHT      - Setting for right aligned PWM.  Should be combined
 439:Generated_Source\PSoC4/TS_Timer.c **** *                             with down counting mode
 440:Generated_Source\PSoC4/TS_Timer.c **** *     - PWM_MODE_CENTER     - Setting for center aligned PWM.  Should be
 441:Generated_Source\PSoC4/TS_Timer.c **** *                             combined with up/down 0 mode
 442:Generated_Source\PSoC4/TS_Timer.c **** *     - PWM_MODE_ASYM       - Setting for asymmetric PWM.  Should be combined
 443:Generated_Source\PSoC4/TS_Timer.c **** *                             with up/down 1 mode
 444:Generated_Source\PSoC4/TS_Timer.c **** *
ARM GAS  C:\Users\tiantiaf\AppData\Local\Temp\ccM0Tu1h.s 			page 13


 445:Generated_Source\PSoC4/TS_Timer.c **** * Return:
 446:Generated_Source\PSoC4/TS_Timer.c **** *  None
 447:Generated_Source\PSoC4/TS_Timer.c **** *
 448:Generated_Source\PSoC4/TS_Timer.c **** *******************************************************************************/
 449:Generated_Source\PSoC4/TS_Timer.c **** void TS_Timer_SetPWMMode(uint32 modeMask)
 450:Generated_Source\PSoC4/TS_Timer.c **** {
 241              		.loc 1 450 0
 242              		.cfi_startproc
 243              	.LVL18:
 451:Generated_Source\PSoC4/TS_Timer.c ****     TS_Timer_TRIG_CONTROL2_REG = (modeMask & TS_Timer_6BIT_MASK);
 244              		.loc 1 451 0
 245 0000 3F23     		mov	r3, #63
 246 0002 1840     		and	r0, r3
 247              	.LVL19:
 248 0004 014B     		ldr	r3, .L17
 249 0006 1860     		str	r0, [r3]
 452:Generated_Source\PSoC4/TS_Timer.c **** }
 250              		.loc 1 452 0
 251              		@ sp needed
 252 0008 7047     		bx	lr
 253              	.L18:
 254 000a C046     		.align	2
 255              	.L17:
 256 000c 28012040 		.word	1075839272
 257              		.cfi_endproc
 258              	.LFE10:
 259              		.size	TS_Timer_SetPWMMode, .-TS_Timer_SetPWMMode
 260              		.section	.text.TS_Timer_SetPWMSyncKill,"ax",%progbits
 261              		.align	2
 262              		.global	TS_Timer_SetPWMSyncKill
 263              		.code	16
 264              		.thumb_func
 265              		.type	TS_Timer_SetPWMSyncKill, %function
 266              	TS_Timer_SetPWMSyncKill:
 267              	.LFB11:
 453:Generated_Source\PSoC4/TS_Timer.c **** 
 454:Generated_Source\PSoC4/TS_Timer.c **** 
 455:Generated_Source\PSoC4/TS_Timer.c **** 
 456:Generated_Source\PSoC4/TS_Timer.c **** /*******************************************************************************
 457:Generated_Source\PSoC4/TS_Timer.c **** * Function Name: TS_Timer_SetPWMSyncKill
 458:Generated_Source\PSoC4/TS_Timer.c **** ********************************************************************************
 459:Generated_Source\PSoC4/TS_Timer.c **** *
 460:Generated_Source\PSoC4/TS_Timer.c **** * Summary:
 461:Generated_Source\PSoC4/TS_Timer.c **** *  Writes the register that controls whether the PWM kill signal (stop input)
 462:Generated_Source\PSoC4/TS_Timer.c **** *  causes asynchronous or synchronous kill operation.  By default the kill
 463:Generated_Source\PSoC4/TS_Timer.c **** *  operation is asynchronous.  This functionality is only applicable to the PWM
 464:Generated_Source\PSoC4/TS_Timer.c **** *  and PWM with dead time modes.
 465:Generated_Source\PSoC4/TS_Timer.c **** *
 466:Generated_Source\PSoC4/TS_Timer.c **** *  For Synchronous mode the kill signal disables both the line and line_n
 467:Generated_Source\PSoC4/TS_Timer.c **** *  signals until the next terminal count.
 468:Generated_Source\PSoC4/TS_Timer.c **** *
 469:Generated_Source\PSoC4/TS_Timer.c **** *  For Asynchronous mode the kill signal disables both the line and line_n
 470:Generated_Source\PSoC4/TS_Timer.c **** *  signals when the kill signal is present.  This mode should only be used
 471:Generated_Source\PSoC4/TS_Timer.c **** *  when the kill signal (stop input) is configured in the pass through mode
 472:Generated_Source\PSoC4/TS_Timer.c **** *  (Level sensitive signal).
 473:Generated_Source\PSoC4/TS_Timer.c **** 
 474:Generated_Source\PSoC4/TS_Timer.c **** *
ARM GAS  C:\Users\tiantiaf\AppData\Local\Temp\ccM0Tu1h.s 			page 14


 475:Generated_Source\PSoC4/TS_Timer.c **** * Parameters:
 476:Generated_Source\PSoC4/TS_Timer.c **** *  syncKillEnable
 477:Generated_Source\PSoC4/TS_Timer.c **** *   Values:
 478:Generated_Source\PSoC4/TS_Timer.c **** *     - 0 - Asynchronous
 479:Generated_Source\PSoC4/TS_Timer.c **** *     - 1 - Synchronous
 480:Generated_Source\PSoC4/TS_Timer.c **** *
 481:Generated_Source\PSoC4/TS_Timer.c **** * Return:
 482:Generated_Source\PSoC4/TS_Timer.c **** *  None
 483:Generated_Source\PSoC4/TS_Timer.c **** *
 484:Generated_Source\PSoC4/TS_Timer.c **** *******************************************************************************/
 485:Generated_Source\PSoC4/TS_Timer.c **** void TS_Timer_SetPWMSyncKill(uint32 syncKillEnable)
 486:Generated_Source\PSoC4/TS_Timer.c **** {
 268              		.loc 1 486 0
 269              		.cfi_startproc
 270              	.LVL20:
 271 0000 10B5     		push	{r4, lr}
 272              		.cfi_def_cfa_offset 8
 273              		.cfi_offset 4, -8
 274              		.cfi_offset 14, -4
 275 0002 041C     		mov	r4, r0
 487:Generated_Source\PSoC4/TS_Timer.c ****     uint8 enableInterrupts;
 488:Generated_Source\PSoC4/TS_Timer.c **** 
 489:Generated_Source\PSoC4/TS_Timer.c ****     enableInterrupts = CyEnterCriticalSection();
 276              		.loc 1 489 0
 277 0004 FFF7FEFF 		bl	CyEnterCriticalSection
 278              	.LVL21:
 490:Generated_Source\PSoC4/TS_Timer.c **** 
 491:Generated_Source\PSoC4/TS_Timer.c ****     TS_Timer_CONTROL_REG &= (uint32)~TS_Timer_PWM_SYNC_KILL_MASK;
 279              		.loc 1 491 0
 280 0008 064B     		ldr	r3, .L20
 281 000a 1A68     		ldr	r2, [r3]
 282 000c 0421     		mov	r1, #4
 283 000e 8A43     		bic	r2, r1
 284 0010 1A60     		str	r2, [r3]
 492:Generated_Source\PSoC4/TS_Timer.c ****     TS_Timer_CONTROL_REG |= ((uint32)((syncKillEnable & TS_Timer_1BIT_MASK)  <<
 285              		.loc 1 492 0
 286 0012 1A68     		ldr	r2, [r3]
 287 0014 0339     		sub	r1, r1, #3
 288 0016 0C40     		and	r4, r1
 289              	.LVL22:
 290 0018 A400     		lsl	r4, r4, #2
 291 001a 1443     		orr	r4, r2
 292 001c 1C60     		str	r4, [r3]
 493:Generated_Source\PSoC4/TS_Timer.c ****                                                TS_Timer_PWM_SYNC_KILL_SHIFT));
 494:Generated_Source\PSoC4/TS_Timer.c **** 
 495:Generated_Source\PSoC4/TS_Timer.c ****     CyExitCriticalSection(enableInterrupts);
 293              		.loc 1 495 0
 294 001e FFF7FEFF 		bl	CyExitCriticalSection
 295              	.LVL23:
 496:Generated_Source\PSoC4/TS_Timer.c **** }
 296              		.loc 1 496 0
 297              		@ sp needed
 298 0022 10BD     		pop	{r4, pc}
 299              	.L21:
 300              		.align	2
 301              	.L20:
 302 0024 00012040 		.word	1075839232
ARM GAS  C:\Users\tiantiaf\AppData\Local\Temp\ccM0Tu1h.s 			page 15


 303              		.cfi_endproc
 304              	.LFE11:
 305              		.size	TS_Timer_SetPWMSyncKill, .-TS_Timer_SetPWMSyncKill
 306              		.section	.text.TS_Timer_SetPWMStopOnKill,"ax",%progbits
 307              		.align	2
 308              		.global	TS_Timer_SetPWMStopOnKill
 309              		.code	16
 310              		.thumb_func
 311              		.type	TS_Timer_SetPWMStopOnKill, %function
 312              	TS_Timer_SetPWMStopOnKill:
 313              	.LFB12:
 497:Generated_Source\PSoC4/TS_Timer.c **** 
 498:Generated_Source\PSoC4/TS_Timer.c **** 
 499:Generated_Source\PSoC4/TS_Timer.c **** /*******************************************************************************
 500:Generated_Source\PSoC4/TS_Timer.c **** * Function Name: TS_Timer_SetPWMStopOnKill
 501:Generated_Source\PSoC4/TS_Timer.c **** ********************************************************************************
 502:Generated_Source\PSoC4/TS_Timer.c **** *
 503:Generated_Source\PSoC4/TS_Timer.c **** * Summary:
 504:Generated_Source\PSoC4/TS_Timer.c **** *  Writes the register that controls whether the PWM kill signal (stop input)
 505:Generated_Source\PSoC4/TS_Timer.c **** *  causes the PWM counter to stop.  By default the kill operation does not stop
 506:Generated_Source\PSoC4/TS_Timer.c **** *  the counter.  This functionality is only applicable to the three PWM modes.
 507:Generated_Source\PSoC4/TS_Timer.c **** *
 508:Generated_Source\PSoC4/TS_Timer.c **** *
 509:Generated_Source\PSoC4/TS_Timer.c **** * Parameters:
 510:Generated_Source\PSoC4/TS_Timer.c **** *  stopOnKillEnable
 511:Generated_Source\PSoC4/TS_Timer.c **** *   Values:
 512:Generated_Source\PSoC4/TS_Timer.c **** *     - 0 - Don't stop
 513:Generated_Source\PSoC4/TS_Timer.c **** *     - 1 - Stop
 514:Generated_Source\PSoC4/TS_Timer.c **** *
 515:Generated_Source\PSoC4/TS_Timer.c **** * Return:
 516:Generated_Source\PSoC4/TS_Timer.c **** *  None
 517:Generated_Source\PSoC4/TS_Timer.c **** *
 518:Generated_Source\PSoC4/TS_Timer.c **** *******************************************************************************/
 519:Generated_Source\PSoC4/TS_Timer.c **** void TS_Timer_SetPWMStopOnKill(uint32 stopOnKillEnable)
 520:Generated_Source\PSoC4/TS_Timer.c **** {
 314              		.loc 1 520 0
 315              		.cfi_startproc
 316              	.LVL24:
 317 0000 10B5     		push	{r4, lr}
 318              		.cfi_def_cfa_offset 8
 319              		.cfi_offset 4, -8
 320              		.cfi_offset 14, -4
 321 0002 041C     		mov	r4, r0
 521:Generated_Source\PSoC4/TS_Timer.c ****     uint8 enableInterrupts;
 522:Generated_Source\PSoC4/TS_Timer.c **** 
 523:Generated_Source\PSoC4/TS_Timer.c ****     enableInterrupts = CyEnterCriticalSection();
 322              		.loc 1 523 0
 323 0004 FFF7FEFF 		bl	CyEnterCriticalSection
 324              	.LVL25:
 524:Generated_Source\PSoC4/TS_Timer.c **** 
 525:Generated_Source\PSoC4/TS_Timer.c ****     TS_Timer_CONTROL_REG &= (uint32)~TS_Timer_PWM_STOP_KILL_MASK;
 325              		.loc 1 525 0
 326 0008 064B     		ldr	r3, .L23
 327 000a 1A68     		ldr	r2, [r3]
 328 000c 0821     		mov	r1, #8
 329 000e 8A43     		bic	r2, r1
 330 0010 1A60     		str	r2, [r3]
ARM GAS  C:\Users\tiantiaf\AppData\Local\Temp\ccM0Tu1h.s 			page 16


 526:Generated_Source\PSoC4/TS_Timer.c ****     TS_Timer_CONTROL_REG |= ((uint32)((stopOnKillEnable & TS_Timer_1BIT_MASK)  <<
 331              		.loc 1 526 0
 332 0012 1A68     		ldr	r2, [r3]
 333 0014 0739     		sub	r1, r1, #7
 334 0016 0C40     		and	r4, r1
 335              	.LVL26:
 336 0018 E400     		lsl	r4, r4, #3
 337 001a 1443     		orr	r4, r2
 338 001c 1C60     		str	r4, [r3]
 527:Generated_Source\PSoC4/TS_Timer.c ****                                                          TS_Timer_PWM_STOP_KILL_SHIFT));
 528:Generated_Source\PSoC4/TS_Timer.c **** 
 529:Generated_Source\PSoC4/TS_Timer.c ****     CyExitCriticalSection(enableInterrupts);
 339              		.loc 1 529 0
 340 001e FFF7FEFF 		bl	CyExitCriticalSection
 341              	.LVL27:
 530:Generated_Source\PSoC4/TS_Timer.c **** }
 342              		.loc 1 530 0
 343              		@ sp needed
 344 0022 10BD     		pop	{r4, pc}
 345              	.L24:
 346              		.align	2
 347              	.L23:
 348 0024 00012040 		.word	1075839232
 349              		.cfi_endproc
 350              	.LFE12:
 351              		.size	TS_Timer_SetPWMStopOnKill, .-TS_Timer_SetPWMStopOnKill
 352              		.section	.text.TS_Timer_SetPWMDeadTime,"ax",%progbits
 353              		.align	2
 354              		.global	TS_Timer_SetPWMDeadTime
 355              		.code	16
 356              		.thumb_func
 357              		.type	TS_Timer_SetPWMDeadTime, %function
 358              	TS_Timer_SetPWMDeadTime:
 359              	.LFB13:
 531:Generated_Source\PSoC4/TS_Timer.c **** 
 532:Generated_Source\PSoC4/TS_Timer.c **** 
 533:Generated_Source\PSoC4/TS_Timer.c **** /*******************************************************************************
 534:Generated_Source\PSoC4/TS_Timer.c **** * Function Name: TS_Timer_SetPWMDeadTime
 535:Generated_Source\PSoC4/TS_Timer.c **** ********************************************************************************
 536:Generated_Source\PSoC4/TS_Timer.c **** *
 537:Generated_Source\PSoC4/TS_Timer.c **** * Summary:
 538:Generated_Source\PSoC4/TS_Timer.c **** *  Writes the dead time control value.  This value delays the rising edge of
 539:Generated_Source\PSoC4/TS_Timer.c **** *  both the line and line_n signals the designated number of cycles resulting
 540:Generated_Source\PSoC4/TS_Timer.c **** *  in both signals being inactive for that many cycles.  This functionality is
 541:Generated_Source\PSoC4/TS_Timer.c **** *  only applicable to the PWM in the dead time mode.
 542:Generated_Source\PSoC4/TS_Timer.c **** 
 543:Generated_Source\PSoC4/TS_Timer.c **** *
 544:Generated_Source\PSoC4/TS_Timer.c **** * Parameters:
 545:Generated_Source\PSoC4/TS_Timer.c **** *  Dead time to insert
 546:Generated_Source\PSoC4/TS_Timer.c **** *   Values: 0 to 255
 547:Generated_Source\PSoC4/TS_Timer.c **** *
 548:Generated_Source\PSoC4/TS_Timer.c **** * Return:
 549:Generated_Source\PSoC4/TS_Timer.c **** *  None
 550:Generated_Source\PSoC4/TS_Timer.c **** *
 551:Generated_Source\PSoC4/TS_Timer.c **** *******************************************************************************/
 552:Generated_Source\PSoC4/TS_Timer.c **** void TS_Timer_SetPWMDeadTime(uint32 deadTime)
 553:Generated_Source\PSoC4/TS_Timer.c **** {
ARM GAS  C:\Users\tiantiaf\AppData\Local\Temp\ccM0Tu1h.s 			page 17


 360              		.loc 1 553 0
 361              		.cfi_startproc
 362              	.LVL28:
 363 0000 10B5     		push	{r4, lr}
 364              		.cfi_def_cfa_offset 8
 365              		.cfi_offset 4, -8
 366              		.cfi_offset 14, -4
 367 0002 041C     		mov	r4, r0
 554:Generated_Source\PSoC4/TS_Timer.c ****     uint8 enableInterrupts;
 555:Generated_Source\PSoC4/TS_Timer.c **** 
 556:Generated_Source\PSoC4/TS_Timer.c ****     enableInterrupts = CyEnterCriticalSection();
 368              		.loc 1 556 0
 369 0004 FFF7FEFF 		bl	CyEnterCriticalSection
 370              	.LVL29:
 557:Generated_Source\PSoC4/TS_Timer.c **** 
 558:Generated_Source\PSoC4/TS_Timer.c ****     TS_Timer_CONTROL_REG &= (uint32)~TS_Timer_PRESCALER_MASK;
 371              		.loc 1 558 0
 372 0008 064B     		ldr	r3, .L26
 373 000a 1968     		ldr	r1, [r3]
 374 000c 064A     		ldr	r2, .L26+4
 375 000e 0A40     		and	r2, r1
 376 0010 1A60     		str	r2, [r3]
 559:Generated_Source\PSoC4/TS_Timer.c ****     TS_Timer_CONTROL_REG |= ((uint32)((deadTime & TS_Timer_8BIT_MASK) <<
 377              		.loc 1 559 0
 378 0012 1A68     		ldr	r2, [r3]
 379 0014 2406     		lsl	r4, r4, #24
 380              	.LVL30:
 381 0016 240C     		lsr	r4, r4, #16
 382 0018 1443     		orr	r4, r2
 383 001a 1C60     		str	r4, [r3]
 560:Generated_Source\PSoC4/TS_Timer.c ****                                                           TS_Timer_PRESCALER_SHIFT));
 561:Generated_Source\PSoC4/TS_Timer.c **** 
 562:Generated_Source\PSoC4/TS_Timer.c ****     CyExitCriticalSection(enableInterrupts);
 384              		.loc 1 562 0
 385 001c FFF7FEFF 		bl	CyExitCriticalSection
 386              	.LVL31:
 563:Generated_Source\PSoC4/TS_Timer.c **** }
 387              		.loc 1 563 0
 388              		@ sp needed
 389 0020 10BD     		pop	{r4, pc}
 390              	.L27:
 391 0022 C046     		.align	2
 392              	.L26:
 393 0024 00012040 		.word	1075839232
 394 0028 FF00FFFF 		.word	-65281
 395              		.cfi_endproc
 396              	.LFE13:
 397              		.size	TS_Timer_SetPWMDeadTime, .-TS_Timer_SetPWMDeadTime
 398              		.section	.text.TS_Timer_SetPWMInvert,"ax",%progbits
 399              		.align	2
 400              		.global	TS_Timer_SetPWMInvert
 401              		.code	16
 402              		.thumb_func
 403              		.type	TS_Timer_SetPWMInvert, %function
 404              	TS_Timer_SetPWMInvert:
 405              	.LFB14:
 564:Generated_Source\PSoC4/TS_Timer.c **** 
ARM GAS  C:\Users\tiantiaf\AppData\Local\Temp\ccM0Tu1h.s 			page 18


 565:Generated_Source\PSoC4/TS_Timer.c **** 
 566:Generated_Source\PSoC4/TS_Timer.c **** /*******************************************************************************
 567:Generated_Source\PSoC4/TS_Timer.c **** * Function Name: TS_Timer_SetPWMInvert
 568:Generated_Source\PSoC4/TS_Timer.c **** ********************************************************************************
 569:Generated_Source\PSoC4/TS_Timer.c **** *
 570:Generated_Source\PSoC4/TS_Timer.c **** * Summary:
 571:Generated_Source\PSoC4/TS_Timer.c **** *  Writes the bits that control whether the line and line_n outputs are
 572:Generated_Source\PSoC4/TS_Timer.c **** *  inverted from their normal output values.  This functionality is only
 573:Generated_Source\PSoC4/TS_Timer.c **** *  applicable to the three PWM modes.
 574:Generated_Source\PSoC4/TS_Timer.c **** *
 575:Generated_Source\PSoC4/TS_Timer.c **** * Parameters:
 576:Generated_Source\PSoC4/TS_Timer.c **** *  mask: Mask of outputs to invert.
 577:Generated_Source\PSoC4/TS_Timer.c **** *   Values:
 578:Generated_Source\PSoC4/TS_Timer.c **** *         - TS_Timer_INVERT_LINE   - Inverts the line output
 579:Generated_Source\PSoC4/TS_Timer.c **** *         - TS_Timer_INVERT_LINE_N - Inverts the line_n output
 580:Generated_Source\PSoC4/TS_Timer.c **** *
 581:Generated_Source\PSoC4/TS_Timer.c **** * Return:
 582:Generated_Source\PSoC4/TS_Timer.c **** *  None
 583:Generated_Source\PSoC4/TS_Timer.c **** *
 584:Generated_Source\PSoC4/TS_Timer.c **** *******************************************************************************/
 585:Generated_Source\PSoC4/TS_Timer.c **** void TS_Timer_SetPWMInvert(uint32 mask)
 586:Generated_Source\PSoC4/TS_Timer.c **** {
 406              		.loc 1 586 0
 407              		.cfi_startproc
 408              	.LVL32:
 409 0000 10B5     		push	{r4, lr}
 410              		.cfi_def_cfa_offset 8
 411              		.cfi_offset 4, -8
 412              		.cfi_offset 14, -4
 413 0002 041C     		mov	r4, r0
 587:Generated_Source\PSoC4/TS_Timer.c ****     uint8 enableInterrupts;
 588:Generated_Source\PSoC4/TS_Timer.c **** 
 589:Generated_Source\PSoC4/TS_Timer.c ****     enableInterrupts = CyEnterCriticalSection();
 414              		.loc 1 589 0
 415 0004 FFF7FEFF 		bl	CyEnterCriticalSection
 416              	.LVL33:
 590:Generated_Source\PSoC4/TS_Timer.c **** 
 591:Generated_Source\PSoC4/TS_Timer.c ****     TS_Timer_CONTROL_REG &= (uint32)~TS_Timer_INV_OUT_MASK;
 417              		.loc 1 591 0
 418 0008 054B     		ldr	r3, .L29
 419 000a 1968     		ldr	r1, [r3]
 420 000c 054A     		ldr	r2, .L29+4
 421 000e 0A40     		and	r2, r1
 422 0010 1A60     		str	r2, [r3]
 592:Generated_Source\PSoC4/TS_Timer.c ****     TS_Timer_CONTROL_REG |= mask;
 423              		.loc 1 592 0
 424 0012 1A68     		ldr	r2, [r3]
 425 0014 1443     		orr	r4, r2
 426              	.LVL34:
 427 0016 1C60     		str	r4, [r3]
 593:Generated_Source\PSoC4/TS_Timer.c **** 
 594:Generated_Source\PSoC4/TS_Timer.c ****     CyExitCriticalSection(enableInterrupts);
 428              		.loc 1 594 0
 429 0018 FFF7FEFF 		bl	CyExitCriticalSection
 430              	.LVL35:
 595:Generated_Source\PSoC4/TS_Timer.c **** }
 431              		.loc 1 595 0
ARM GAS  C:\Users\tiantiaf\AppData\Local\Temp\ccM0Tu1h.s 			page 19


 432              		@ sp needed
 433 001c 10BD     		pop	{r4, pc}
 434              	.L30:
 435 001e C046     		.align	2
 436              	.L29:
 437 0020 00012040 		.word	1075839232
 438 0024 FFFFCFFF 		.word	-3145729
 439              		.cfi_endproc
 440              	.LFE14:
 441              		.size	TS_Timer_SetPWMInvert, .-TS_Timer_SetPWMInvert
 442              		.section	.text.TS_Timer_WriteCounter,"ax",%progbits
 443              		.align	2
 444              		.global	TS_Timer_WriteCounter
 445              		.code	16
 446              		.thumb_func
 447              		.type	TS_Timer_WriteCounter, %function
 448              	TS_Timer_WriteCounter:
 449              	.LFB15:
 596:Generated_Source\PSoC4/TS_Timer.c **** 
 597:Generated_Source\PSoC4/TS_Timer.c **** 
 598:Generated_Source\PSoC4/TS_Timer.c **** 
 599:Generated_Source\PSoC4/TS_Timer.c **** /*******************************************************************************
 600:Generated_Source\PSoC4/TS_Timer.c **** * Function Name: TS_Timer_WriteCounter
 601:Generated_Source\PSoC4/TS_Timer.c **** ********************************************************************************
 602:Generated_Source\PSoC4/TS_Timer.c **** *
 603:Generated_Source\PSoC4/TS_Timer.c **** * Summary:
 604:Generated_Source\PSoC4/TS_Timer.c **** *  Writes a new 16bit counter value directly into the counter register, thus
 605:Generated_Source\PSoC4/TS_Timer.c **** *  setting the counter (not the period) to the value written. It is not
 606:Generated_Source\PSoC4/TS_Timer.c **** *  advised to write to this field when the counter is running.
 607:Generated_Source\PSoC4/TS_Timer.c **** *
 608:Generated_Source\PSoC4/TS_Timer.c **** * Parameters:
 609:Generated_Source\PSoC4/TS_Timer.c **** *  count: value to write
 610:Generated_Source\PSoC4/TS_Timer.c **** *
 611:Generated_Source\PSoC4/TS_Timer.c **** * Return:
 612:Generated_Source\PSoC4/TS_Timer.c **** *  None
 613:Generated_Source\PSoC4/TS_Timer.c **** *
 614:Generated_Source\PSoC4/TS_Timer.c **** *******************************************************************************/
 615:Generated_Source\PSoC4/TS_Timer.c **** void TS_Timer_WriteCounter(uint32 count)
 616:Generated_Source\PSoC4/TS_Timer.c **** {
 450              		.loc 1 616 0
 451              		.cfi_startproc
 452              	.LVL36:
 617:Generated_Source\PSoC4/TS_Timer.c ****     TS_Timer_COUNTER_REG = (count & TS_Timer_16BIT_MASK);
 453              		.loc 1 617 0
 454 0000 0004     		lsl	r0, r0, #16
 455              	.LVL37:
 456 0002 000C     		lsr	r0, r0, #16
 457 0004 014B     		ldr	r3, .L32
 458 0006 1860     		str	r0, [r3]
 618:Generated_Source\PSoC4/TS_Timer.c **** }
 459              		.loc 1 618 0
 460              		@ sp needed
 461 0008 7047     		bx	lr
 462              	.L33:
 463 000a C046     		.align	2
 464              	.L32:
 465 000c 08012040 		.word	1075839240
ARM GAS  C:\Users\tiantiaf\AppData\Local\Temp\ccM0Tu1h.s 			page 20


 466              		.cfi_endproc
 467              	.LFE15:
 468              		.size	TS_Timer_WriteCounter, .-TS_Timer_WriteCounter
 469              		.section	.text.TS_Timer_ReadCounter,"ax",%progbits
 470              		.align	2
 471              		.global	TS_Timer_ReadCounter
 472              		.code	16
 473              		.thumb_func
 474              		.type	TS_Timer_ReadCounter, %function
 475              	TS_Timer_ReadCounter:
 476              	.LFB16:
 619:Generated_Source\PSoC4/TS_Timer.c **** 
 620:Generated_Source\PSoC4/TS_Timer.c **** 
 621:Generated_Source\PSoC4/TS_Timer.c **** /*******************************************************************************
 622:Generated_Source\PSoC4/TS_Timer.c **** * Function Name: TS_Timer_ReadCounter
 623:Generated_Source\PSoC4/TS_Timer.c **** ********************************************************************************
 624:Generated_Source\PSoC4/TS_Timer.c **** *
 625:Generated_Source\PSoC4/TS_Timer.c **** * Summary:
 626:Generated_Source\PSoC4/TS_Timer.c **** *  Reads the current counter value.
 627:Generated_Source\PSoC4/TS_Timer.c **** *
 628:Generated_Source\PSoC4/TS_Timer.c **** * Parameters:
 629:Generated_Source\PSoC4/TS_Timer.c **** *  None
 630:Generated_Source\PSoC4/TS_Timer.c **** *
 631:Generated_Source\PSoC4/TS_Timer.c **** * Return:
 632:Generated_Source\PSoC4/TS_Timer.c **** *  Current counter value
 633:Generated_Source\PSoC4/TS_Timer.c **** *
 634:Generated_Source\PSoC4/TS_Timer.c **** *******************************************************************************/
 635:Generated_Source\PSoC4/TS_Timer.c **** uint32 TS_Timer_ReadCounter(void)
 636:Generated_Source\PSoC4/TS_Timer.c **** {
 477              		.loc 1 636 0
 478              		.cfi_startproc
 637:Generated_Source\PSoC4/TS_Timer.c ****     return (TS_Timer_COUNTER_REG & TS_Timer_16BIT_MASK);
 479              		.loc 1 637 0
 480 0000 024B     		ldr	r3, .L35
 481 0002 1868     		ldr	r0, [r3]
 482 0004 0004     		lsl	r0, r0, #16
 483 0006 000C     		lsr	r0, r0, #16
 638:Generated_Source\PSoC4/TS_Timer.c **** }
 484              		.loc 1 638 0
 485              		@ sp needed
 486 0008 7047     		bx	lr
 487              	.L36:
 488 000a C046     		.align	2
 489              	.L35:
 490 000c 08012040 		.word	1075839240
 491              		.cfi_endproc
 492              	.LFE16:
 493              		.size	TS_Timer_ReadCounter, .-TS_Timer_ReadCounter
 494              		.section	.text.TS_Timer_SetCounterMode,"ax",%progbits
 495              		.align	2
 496              		.global	TS_Timer_SetCounterMode
 497              		.code	16
 498              		.thumb_func
 499              		.type	TS_Timer_SetCounterMode, %function
 500              	TS_Timer_SetCounterMode:
 501              	.LFB17:
 639:Generated_Source\PSoC4/TS_Timer.c **** 
ARM GAS  C:\Users\tiantiaf\AppData\Local\Temp\ccM0Tu1h.s 			page 21


 640:Generated_Source\PSoC4/TS_Timer.c **** 
 641:Generated_Source\PSoC4/TS_Timer.c **** /*******************************************************************************
 642:Generated_Source\PSoC4/TS_Timer.c **** * Function Name: TS_Timer_SetCounterMode
 643:Generated_Source\PSoC4/TS_Timer.c **** ********************************************************************************
 644:Generated_Source\PSoC4/TS_Timer.c **** *
 645:Generated_Source\PSoC4/TS_Timer.c **** * Summary:
 646:Generated_Source\PSoC4/TS_Timer.c **** *  Sets the counter mode.  Applicable to all modes except Quadrature Decoder
 647:Generated_Source\PSoC4/TS_Timer.c **** *  and the PWM with a pseudo random output.
 648:Generated_Source\PSoC4/TS_Timer.c **** *
 649:Generated_Source\PSoC4/TS_Timer.c **** * Parameters:
 650:Generated_Source\PSoC4/TS_Timer.c **** *  counterMode: Enumerated counter type values
 651:Generated_Source\PSoC4/TS_Timer.c **** *   Values:
 652:Generated_Source\PSoC4/TS_Timer.c **** *     - TS_Timer_COUNT_UP       - Counts up
 653:Generated_Source\PSoC4/TS_Timer.c **** *     - TS_Timer_COUNT_DOWN     - Counts down
 654:Generated_Source\PSoC4/TS_Timer.c **** *     - TS_Timer_COUNT_UPDOWN0  - Counts up and down. Terminal count
 655:Generated_Source\PSoC4/TS_Timer.c **** *                                         generated when counter reaches 0
 656:Generated_Source\PSoC4/TS_Timer.c **** *     - TS_Timer_COUNT_UPDOWN1  - Counts up and down. Terminal count
 657:Generated_Source\PSoC4/TS_Timer.c **** *                                         generated both when counter reaches 0
 658:Generated_Source\PSoC4/TS_Timer.c **** *                                         and period
 659:Generated_Source\PSoC4/TS_Timer.c **** *
 660:Generated_Source\PSoC4/TS_Timer.c **** * Return:
 661:Generated_Source\PSoC4/TS_Timer.c **** *  None
 662:Generated_Source\PSoC4/TS_Timer.c **** *
 663:Generated_Source\PSoC4/TS_Timer.c **** *******************************************************************************/
 664:Generated_Source\PSoC4/TS_Timer.c **** void TS_Timer_SetCounterMode(uint32 counterMode)
 665:Generated_Source\PSoC4/TS_Timer.c **** {
 502              		.loc 1 665 0
 503              		.cfi_startproc
 504              	.LVL38:
 505 0000 10B5     		push	{r4, lr}
 506              		.cfi_def_cfa_offset 8
 507              		.cfi_offset 4, -8
 508              		.cfi_offset 14, -4
 509 0002 041C     		mov	r4, r0
 666:Generated_Source\PSoC4/TS_Timer.c ****     uint8 enableInterrupts;
 667:Generated_Source\PSoC4/TS_Timer.c **** 
 668:Generated_Source\PSoC4/TS_Timer.c ****     enableInterrupts = CyEnterCriticalSection();
 510              		.loc 1 668 0
 511 0004 FFF7FEFF 		bl	CyEnterCriticalSection
 512              	.LVL39:
 669:Generated_Source\PSoC4/TS_Timer.c **** 
 670:Generated_Source\PSoC4/TS_Timer.c ****     TS_Timer_CONTROL_REG &= (uint32)~TS_Timer_UPDOWN_MASK;
 513              		.loc 1 670 0
 514 0008 054B     		ldr	r3, .L38
 515 000a 1968     		ldr	r1, [r3]
 516 000c 054A     		ldr	r2, .L38+4
 517 000e 0A40     		and	r2, r1
 518 0010 1A60     		str	r2, [r3]
 671:Generated_Source\PSoC4/TS_Timer.c ****     TS_Timer_CONTROL_REG |= counterMode;
 519              		.loc 1 671 0
 520 0012 1A68     		ldr	r2, [r3]
 521 0014 1443     		orr	r4, r2
 522              	.LVL40:
 523 0016 1C60     		str	r4, [r3]
 672:Generated_Source\PSoC4/TS_Timer.c **** 
 673:Generated_Source\PSoC4/TS_Timer.c ****     CyExitCriticalSection(enableInterrupts);
 524              		.loc 1 673 0
ARM GAS  C:\Users\tiantiaf\AppData\Local\Temp\ccM0Tu1h.s 			page 22


 525 0018 FFF7FEFF 		bl	CyExitCriticalSection
 526              	.LVL41:
 674:Generated_Source\PSoC4/TS_Timer.c **** }
 527              		.loc 1 674 0
 528              		@ sp needed
 529 001c 10BD     		pop	{r4, pc}
 530              	.L39:
 531 001e C046     		.align	2
 532              	.L38:
 533 0020 00012040 		.word	1075839232
 534 0024 FFFFFCFF 		.word	-196609
 535              		.cfi_endproc
 536              	.LFE17:
 537              		.size	TS_Timer_SetCounterMode, .-TS_Timer_SetCounterMode
 538              		.section	.text.TS_Timer_WritePeriod,"ax",%progbits
 539              		.align	2
 540              		.global	TS_Timer_WritePeriod
 541              		.code	16
 542              		.thumb_func
 543              		.type	TS_Timer_WritePeriod, %function
 544              	TS_Timer_WritePeriod:
 545              	.LFB18:
 675:Generated_Source\PSoC4/TS_Timer.c **** 
 676:Generated_Source\PSoC4/TS_Timer.c **** 
 677:Generated_Source\PSoC4/TS_Timer.c **** /*******************************************************************************
 678:Generated_Source\PSoC4/TS_Timer.c **** * Function Name: TS_Timer_WritePeriod
 679:Generated_Source\PSoC4/TS_Timer.c **** ********************************************************************************
 680:Generated_Source\PSoC4/TS_Timer.c **** *
 681:Generated_Source\PSoC4/TS_Timer.c **** * Summary:
 682:Generated_Source\PSoC4/TS_Timer.c **** *  Writes the 16 bit period register with the new period value.
 683:Generated_Source\PSoC4/TS_Timer.c **** *  To cause the counter to count for N cycles this register should be written
 684:Generated_Source\PSoC4/TS_Timer.c **** *  with N-1 (counts from 0 to period inclusive).
 685:Generated_Source\PSoC4/TS_Timer.c **** *
 686:Generated_Source\PSoC4/TS_Timer.c **** * Parameters:
 687:Generated_Source\PSoC4/TS_Timer.c **** *  period: Period value
 688:Generated_Source\PSoC4/TS_Timer.c **** *
 689:Generated_Source\PSoC4/TS_Timer.c **** * Return:
 690:Generated_Source\PSoC4/TS_Timer.c **** *  None
 691:Generated_Source\PSoC4/TS_Timer.c **** *
 692:Generated_Source\PSoC4/TS_Timer.c **** *******************************************************************************/
 693:Generated_Source\PSoC4/TS_Timer.c **** void TS_Timer_WritePeriod(uint32 period)
 694:Generated_Source\PSoC4/TS_Timer.c **** {
 546              		.loc 1 694 0
 547              		.cfi_startproc
 548              	.LVL42:
 695:Generated_Source\PSoC4/TS_Timer.c ****     TS_Timer_PERIOD_REG = (period & TS_Timer_16BIT_MASK);
 549              		.loc 1 695 0
 550 0000 0004     		lsl	r0, r0, #16
 551              	.LVL43:
 552 0002 000C     		lsr	r0, r0, #16
 553 0004 014B     		ldr	r3, .L41
 554 0006 1860     		str	r0, [r3]
 696:Generated_Source\PSoC4/TS_Timer.c **** }
 555              		.loc 1 696 0
 556              		@ sp needed
 557 0008 7047     		bx	lr
 558              	.L42:
ARM GAS  C:\Users\tiantiaf\AppData\Local\Temp\ccM0Tu1h.s 			page 23


 559 000a C046     		.align	2
 560              	.L41:
 561 000c 14012040 		.word	1075839252
 562              		.cfi_endproc
 563              	.LFE18:
 564              		.size	TS_Timer_WritePeriod, .-TS_Timer_WritePeriod
 565              		.section	.text.TS_Timer_ReadPeriod,"ax",%progbits
 566              		.align	2
 567              		.global	TS_Timer_ReadPeriod
 568              		.code	16
 569              		.thumb_func
 570              		.type	TS_Timer_ReadPeriod, %function
 571              	TS_Timer_ReadPeriod:
 572              	.LFB19:
 697:Generated_Source\PSoC4/TS_Timer.c **** 
 698:Generated_Source\PSoC4/TS_Timer.c **** 
 699:Generated_Source\PSoC4/TS_Timer.c **** /*******************************************************************************
 700:Generated_Source\PSoC4/TS_Timer.c **** * Function Name: TS_Timer_ReadPeriod
 701:Generated_Source\PSoC4/TS_Timer.c **** ********************************************************************************
 702:Generated_Source\PSoC4/TS_Timer.c **** *
 703:Generated_Source\PSoC4/TS_Timer.c **** * Summary:
 704:Generated_Source\PSoC4/TS_Timer.c **** *  Reads the 16 bit period register.
 705:Generated_Source\PSoC4/TS_Timer.c **** *
 706:Generated_Source\PSoC4/TS_Timer.c **** * Parameters:
 707:Generated_Source\PSoC4/TS_Timer.c **** *  None
 708:Generated_Source\PSoC4/TS_Timer.c **** *
 709:Generated_Source\PSoC4/TS_Timer.c **** * Return:
 710:Generated_Source\PSoC4/TS_Timer.c **** *  Period value
 711:Generated_Source\PSoC4/TS_Timer.c **** *
 712:Generated_Source\PSoC4/TS_Timer.c **** *******************************************************************************/
 713:Generated_Source\PSoC4/TS_Timer.c **** uint32 TS_Timer_ReadPeriod(void)
 714:Generated_Source\PSoC4/TS_Timer.c **** {
 573              		.loc 1 714 0
 574              		.cfi_startproc
 715:Generated_Source\PSoC4/TS_Timer.c ****     return (TS_Timer_PERIOD_REG & TS_Timer_16BIT_MASK);
 575              		.loc 1 715 0
 576 0000 024B     		ldr	r3, .L44
 577 0002 1868     		ldr	r0, [r3]
 578 0004 0004     		lsl	r0, r0, #16
 579 0006 000C     		lsr	r0, r0, #16
 716:Generated_Source\PSoC4/TS_Timer.c **** }
 580              		.loc 1 716 0
 581              		@ sp needed
 582 0008 7047     		bx	lr
 583              	.L45:
 584 000a C046     		.align	2
 585              	.L44:
 586 000c 14012040 		.word	1075839252
 587              		.cfi_endproc
 588              	.LFE19:
 589              		.size	TS_Timer_ReadPeriod, .-TS_Timer_ReadPeriod
 590              		.section	.text.TS_Timer_SetCompareSwap,"ax",%progbits
 591              		.align	2
 592              		.global	TS_Timer_SetCompareSwap
 593              		.code	16
 594              		.thumb_func
 595              		.type	TS_Timer_SetCompareSwap, %function
ARM GAS  C:\Users\tiantiaf\AppData\Local\Temp\ccM0Tu1h.s 			page 24


 596              	TS_Timer_SetCompareSwap:
 597              	.LFB20:
 717:Generated_Source\PSoC4/TS_Timer.c **** 
 718:Generated_Source\PSoC4/TS_Timer.c **** 
 719:Generated_Source\PSoC4/TS_Timer.c **** /*******************************************************************************
 720:Generated_Source\PSoC4/TS_Timer.c **** * Function Name: TS_Timer_SetCompareSwap
 721:Generated_Source\PSoC4/TS_Timer.c **** ********************************************************************************
 722:Generated_Source\PSoC4/TS_Timer.c **** *
 723:Generated_Source\PSoC4/TS_Timer.c **** * Summary:
 724:Generated_Source\PSoC4/TS_Timer.c **** *  Writes the register that controls whether the compare registers are
 725:Generated_Source\PSoC4/TS_Timer.c **** *  swapped. When enabled in the Timer/Counter mode(without capture) the swap
 726:Generated_Source\PSoC4/TS_Timer.c **** *  occurs at a TC event. In the PWM mode the swap occurs at the next TC event
 727:Generated_Source\PSoC4/TS_Timer.c **** *  following a hardware switch event.
 728:Generated_Source\PSoC4/TS_Timer.c **** *
 729:Generated_Source\PSoC4/TS_Timer.c **** * Parameters:
 730:Generated_Source\PSoC4/TS_Timer.c **** *  swapEnable
 731:Generated_Source\PSoC4/TS_Timer.c **** *   Values:
 732:Generated_Source\PSoC4/TS_Timer.c **** *     - 0 - Disable swap
 733:Generated_Source\PSoC4/TS_Timer.c **** *     - 1 - Enable swap
 734:Generated_Source\PSoC4/TS_Timer.c **** *
 735:Generated_Source\PSoC4/TS_Timer.c **** * Return:
 736:Generated_Source\PSoC4/TS_Timer.c **** *  None
 737:Generated_Source\PSoC4/TS_Timer.c **** *
 738:Generated_Source\PSoC4/TS_Timer.c **** *******************************************************************************/
 739:Generated_Source\PSoC4/TS_Timer.c **** void TS_Timer_SetCompareSwap(uint32 swapEnable)
 740:Generated_Source\PSoC4/TS_Timer.c **** {
 598              		.loc 1 740 0
 599              		.cfi_startproc
 600              	.LVL44:
 601 0000 10B5     		push	{r4, lr}
 602              		.cfi_def_cfa_offset 8
 603              		.cfi_offset 4, -8
 604              		.cfi_offset 14, -4
 605 0002 041C     		mov	r4, r0
 741:Generated_Source\PSoC4/TS_Timer.c ****     uint8 enableInterrupts;
 742:Generated_Source\PSoC4/TS_Timer.c **** 
 743:Generated_Source\PSoC4/TS_Timer.c ****     enableInterrupts = CyEnterCriticalSection();
 606              		.loc 1 743 0
 607 0004 FFF7FEFF 		bl	CyEnterCriticalSection
 608              	.LVL45:
 744:Generated_Source\PSoC4/TS_Timer.c **** 
 745:Generated_Source\PSoC4/TS_Timer.c ****     TS_Timer_CONTROL_REG &= (uint32)~TS_Timer_RELOAD_CC_MASK;
 609              		.loc 1 745 0
 610 0008 054B     		ldr	r3, .L47
 611 000a 1A68     		ldr	r2, [r3]
 612 000c 0121     		mov	r1, #1
 613 000e 8A43     		bic	r2, r1
 614 0010 1A60     		str	r2, [r3]
 746:Generated_Source\PSoC4/TS_Timer.c ****     TS_Timer_CONTROL_REG |= (swapEnable & TS_Timer_1BIT_MASK);
 615              		.loc 1 746 0
 616 0012 1A68     		ldr	r2, [r3]
 617 0014 0C40     		and	r4, r1
 618              	.LVL46:
 619 0016 1443     		orr	r4, r2
 620 0018 1C60     		str	r4, [r3]
 747:Generated_Source\PSoC4/TS_Timer.c **** 
 748:Generated_Source\PSoC4/TS_Timer.c ****     CyExitCriticalSection(enableInterrupts);
ARM GAS  C:\Users\tiantiaf\AppData\Local\Temp\ccM0Tu1h.s 			page 25


 621              		.loc 1 748 0
 622 001a FFF7FEFF 		bl	CyExitCriticalSection
 623              	.LVL47:
 749:Generated_Source\PSoC4/TS_Timer.c **** }
 624              		.loc 1 749 0
 625              		@ sp needed
 626 001e 10BD     		pop	{r4, pc}
 627              	.L48:
 628              		.align	2
 629              	.L47:
 630 0020 00012040 		.word	1075839232
 631              		.cfi_endproc
 632              	.LFE20:
 633              		.size	TS_Timer_SetCompareSwap, .-TS_Timer_SetCompareSwap
 634              		.section	.text.TS_Timer_WritePeriodBuf,"ax",%progbits
 635              		.align	2
 636              		.global	TS_Timer_WritePeriodBuf
 637              		.code	16
 638              		.thumb_func
 639              		.type	TS_Timer_WritePeriodBuf, %function
 640              	TS_Timer_WritePeriodBuf:
 641              	.LFB21:
 750:Generated_Source\PSoC4/TS_Timer.c **** 
 751:Generated_Source\PSoC4/TS_Timer.c **** 
 752:Generated_Source\PSoC4/TS_Timer.c **** /*******************************************************************************
 753:Generated_Source\PSoC4/TS_Timer.c **** * Function Name: TS_Timer_WritePeriodBuf
 754:Generated_Source\PSoC4/TS_Timer.c **** ********************************************************************************
 755:Generated_Source\PSoC4/TS_Timer.c **** *
 756:Generated_Source\PSoC4/TS_Timer.c **** * Summary:
 757:Generated_Source\PSoC4/TS_Timer.c **** *  Writes the 16 bit period buf register with the new period value.
 758:Generated_Source\PSoC4/TS_Timer.c **** *
 759:Generated_Source\PSoC4/TS_Timer.c **** * Parameters:
 760:Generated_Source\PSoC4/TS_Timer.c **** *  periodBuf: Period value
 761:Generated_Source\PSoC4/TS_Timer.c **** *
 762:Generated_Source\PSoC4/TS_Timer.c **** * Return:
 763:Generated_Source\PSoC4/TS_Timer.c **** *  None
 764:Generated_Source\PSoC4/TS_Timer.c **** *
 765:Generated_Source\PSoC4/TS_Timer.c **** *******************************************************************************/
 766:Generated_Source\PSoC4/TS_Timer.c **** void TS_Timer_WritePeriodBuf(uint32 periodBuf)
 767:Generated_Source\PSoC4/TS_Timer.c **** {
 642              		.loc 1 767 0
 643              		.cfi_startproc
 644              	.LVL48:
 768:Generated_Source\PSoC4/TS_Timer.c ****     TS_Timer_PERIOD_BUF_REG = (periodBuf & TS_Timer_16BIT_MASK);
 645              		.loc 1 768 0
 646 0000 0004     		lsl	r0, r0, #16
 647              	.LVL49:
 648 0002 000C     		lsr	r0, r0, #16
 649 0004 014B     		ldr	r3, .L50
 650 0006 1860     		str	r0, [r3]
 769:Generated_Source\PSoC4/TS_Timer.c **** }
 651              		.loc 1 769 0
 652              		@ sp needed
 653 0008 7047     		bx	lr
 654              	.L51:
 655 000a C046     		.align	2
 656              	.L50:
ARM GAS  C:\Users\tiantiaf\AppData\Local\Temp\ccM0Tu1h.s 			page 26


 657 000c 18012040 		.word	1075839256
 658              		.cfi_endproc
 659              	.LFE21:
 660              		.size	TS_Timer_WritePeriodBuf, .-TS_Timer_WritePeriodBuf
 661              		.section	.text.TS_Timer_ReadPeriodBuf,"ax",%progbits
 662              		.align	2
 663              		.global	TS_Timer_ReadPeriodBuf
 664              		.code	16
 665              		.thumb_func
 666              		.type	TS_Timer_ReadPeriodBuf, %function
 667              	TS_Timer_ReadPeriodBuf:
 668              	.LFB22:
 770:Generated_Source\PSoC4/TS_Timer.c **** 
 771:Generated_Source\PSoC4/TS_Timer.c **** 
 772:Generated_Source\PSoC4/TS_Timer.c **** /*******************************************************************************
 773:Generated_Source\PSoC4/TS_Timer.c **** * Function Name: TS_Timer_ReadPeriodBuf
 774:Generated_Source\PSoC4/TS_Timer.c **** ********************************************************************************
 775:Generated_Source\PSoC4/TS_Timer.c **** *
 776:Generated_Source\PSoC4/TS_Timer.c **** * Summary:
 777:Generated_Source\PSoC4/TS_Timer.c **** *  Reads the 16 bit period buf register.
 778:Generated_Source\PSoC4/TS_Timer.c **** *
 779:Generated_Source\PSoC4/TS_Timer.c **** * Parameters:
 780:Generated_Source\PSoC4/TS_Timer.c **** *  None
 781:Generated_Source\PSoC4/TS_Timer.c **** *
 782:Generated_Source\PSoC4/TS_Timer.c **** * Return:
 783:Generated_Source\PSoC4/TS_Timer.c **** *  Period value
 784:Generated_Source\PSoC4/TS_Timer.c **** *
 785:Generated_Source\PSoC4/TS_Timer.c **** *******************************************************************************/
 786:Generated_Source\PSoC4/TS_Timer.c **** uint32 TS_Timer_ReadPeriodBuf(void)
 787:Generated_Source\PSoC4/TS_Timer.c **** {
 669              		.loc 1 787 0
 670              		.cfi_startproc
 788:Generated_Source\PSoC4/TS_Timer.c ****     return (TS_Timer_PERIOD_BUF_REG & TS_Timer_16BIT_MASK);
 671              		.loc 1 788 0
 672 0000 024B     		ldr	r3, .L53
 673 0002 1868     		ldr	r0, [r3]
 674 0004 0004     		lsl	r0, r0, #16
 675 0006 000C     		lsr	r0, r0, #16
 789:Generated_Source\PSoC4/TS_Timer.c **** }
 676              		.loc 1 789 0
 677              		@ sp needed
 678 0008 7047     		bx	lr
 679              	.L54:
 680 000a C046     		.align	2
 681              	.L53:
 682 000c 18012040 		.word	1075839256
 683              		.cfi_endproc
 684              	.LFE22:
 685              		.size	TS_Timer_ReadPeriodBuf, .-TS_Timer_ReadPeriodBuf
 686              		.section	.text.TS_Timer_SetPeriodSwap,"ax",%progbits
 687              		.align	2
 688              		.global	TS_Timer_SetPeriodSwap
 689              		.code	16
 690              		.thumb_func
 691              		.type	TS_Timer_SetPeriodSwap, %function
 692              	TS_Timer_SetPeriodSwap:
 693              	.LFB23:
ARM GAS  C:\Users\tiantiaf\AppData\Local\Temp\ccM0Tu1h.s 			page 27


 790:Generated_Source\PSoC4/TS_Timer.c **** 
 791:Generated_Source\PSoC4/TS_Timer.c **** 
 792:Generated_Source\PSoC4/TS_Timer.c **** /*******************************************************************************
 793:Generated_Source\PSoC4/TS_Timer.c **** * Function Name: TS_Timer_SetPeriodSwap
 794:Generated_Source\PSoC4/TS_Timer.c **** ********************************************************************************
 795:Generated_Source\PSoC4/TS_Timer.c **** *
 796:Generated_Source\PSoC4/TS_Timer.c **** * Summary:
 797:Generated_Source\PSoC4/TS_Timer.c **** *  Writes the register that controls whether the period registers are
 798:Generated_Source\PSoC4/TS_Timer.c **** *  swapped. When enabled in Timer/Counter mode the swap occurs at a TC event.
 799:Generated_Source\PSoC4/TS_Timer.c **** *  In the PWM mode the swap occurs at the next TC event following a hardware
 800:Generated_Source\PSoC4/TS_Timer.c **** *  switch event.
 801:Generated_Source\PSoC4/TS_Timer.c **** *
 802:Generated_Source\PSoC4/TS_Timer.c **** * Parameters:
 803:Generated_Source\PSoC4/TS_Timer.c **** *  swapEnable
 804:Generated_Source\PSoC4/TS_Timer.c **** *   Values:
 805:Generated_Source\PSoC4/TS_Timer.c **** *     - 0 - Disable swap
 806:Generated_Source\PSoC4/TS_Timer.c **** *     - 1 - Enable swap
 807:Generated_Source\PSoC4/TS_Timer.c **** *
 808:Generated_Source\PSoC4/TS_Timer.c **** * Return:
 809:Generated_Source\PSoC4/TS_Timer.c **** *  None
 810:Generated_Source\PSoC4/TS_Timer.c **** *
 811:Generated_Source\PSoC4/TS_Timer.c **** *******************************************************************************/
 812:Generated_Source\PSoC4/TS_Timer.c **** void TS_Timer_SetPeriodSwap(uint32 swapEnable)
 813:Generated_Source\PSoC4/TS_Timer.c **** {
 694              		.loc 1 813 0
 695              		.cfi_startproc
 696              	.LVL50:
 697 0000 10B5     		push	{r4, lr}
 698              		.cfi_def_cfa_offset 8
 699              		.cfi_offset 4, -8
 700              		.cfi_offset 14, -4
 701 0002 041C     		mov	r4, r0
 814:Generated_Source\PSoC4/TS_Timer.c ****     uint8 enableInterrupts;
 815:Generated_Source\PSoC4/TS_Timer.c **** 
 816:Generated_Source\PSoC4/TS_Timer.c ****     enableInterrupts = CyEnterCriticalSection();
 702              		.loc 1 816 0
 703 0004 FFF7FEFF 		bl	CyEnterCriticalSection
 704              	.LVL51:
 817:Generated_Source\PSoC4/TS_Timer.c **** 
 818:Generated_Source\PSoC4/TS_Timer.c ****     TS_Timer_CONTROL_REG &= (uint32)~TS_Timer_RELOAD_PERIOD_MASK;
 705              		.loc 1 818 0
 706 0008 064B     		ldr	r3, .L56
 707 000a 1A68     		ldr	r2, [r3]
 708 000c 0221     		mov	r1, #2
 709 000e 8A43     		bic	r2, r1
 710 0010 1A60     		str	r2, [r3]
 819:Generated_Source\PSoC4/TS_Timer.c ****     TS_Timer_CONTROL_REG |= ((uint32)((swapEnable & TS_Timer_1BIT_MASK) <<
 711              		.loc 1 819 0
 712 0012 1A68     		ldr	r2, [r3]
 713 0014 0139     		sub	r1, r1, #1
 714 0016 0C40     		and	r4, r1
 715              	.LVL52:
 716 0018 6400     		lsl	r4, r4, #1
 717 001a 1443     		orr	r4, r2
 718 001c 1C60     		str	r4, [r3]
 820:Generated_Source\PSoC4/TS_Timer.c ****                                                             TS_Timer_RELOAD_PERIOD_SHIFT));
 821:Generated_Source\PSoC4/TS_Timer.c **** 
ARM GAS  C:\Users\tiantiaf\AppData\Local\Temp\ccM0Tu1h.s 			page 28


 822:Generated_Source\PSoC4/TS_Timer.c ****     CyExitCriticalSection(enableInterrupts);
 719              		.loc 1 822 0
 720 001e FFF7FEFF 		bl	CyExitCriticalSection
 721              	.LVL53:
 823:Generated_Source\PSoC4/TS_Timer.c **** }
 722              		.loc 1 823 0
 723              		@ sp needed
 724 0022 10BD     		pop	{r4, pc}
 725              	.L57:
 726              		.align	2
 727              	.L56:
 728 0024 00012040 		.word	1075839232
 729              		.cfi_endproc
 730              	.LFE23:
 731              		.size	TS_Timer_SetPeriodSwap, .-TS_Timer_SetPeriodSwap
 732              		.section	.text.TS_Timer_WriteCompare,"ax",%progbits
 733              		.align	2
 734              		.global	TS_Timer_WriteCompare
 735              		.code	16
 736              		.thumb_func
 737              		.type	TS_Timer_WriteCompare, %function
 738              	TS_Timer_WriteCompare:
 739              	.LFB24:
 824:Generated_Source\PSoC4/TS_Timer.c **** 
 825:Generated_Source\PSoC4/TS_Timer.c **** 
 826:Generated_Source\PSoC4/TS_Timer.c **** /*******************************************************************************
 827:Generated_Source\PSoC4/TS_Timer.c **** * Function Name: TS_Timer_WriteCompare
 828:Generated_Source\PSoC4/TS_Timer.c **** ********************************************************************************
 829:Generated_Source\PSoC4/TS_Timer.c **** *
 830:Generated_Source\PSoC4/TS_Timer.c **** * Summary:
 831:Generated_Source\PSoC4/TS_Timer.c **** *  Writes the 16 bit compare register with the new compare value. Not
 832:Generated_Source\PSoC4/TS_Timer.c **** *  applicable for Timer/Counter with Capture or in Quadrature Decoder modes.
 833:Generated_Source\PSoC4/TS_Timer.c **** *
 834:Generated_Source\PSoC4/TS_Timer.c **** * Parameters:
 835:Generated_Source\PSoC4/TS_Timer.c **** *  compare: Compare value
 836:Generated_Source\PSoC4/TS_Timer.c **** *
 837:Generated_Source\PSoC4/TS_Timer.c **** * Return:
 838:Generated_Source\PSoC4/TS_Timer.c **** *  None
 839:Generated_Source\PSoC4/TS_Timer.c **** *
 840:Generated_Source\PSoC4/TS_Timer.c **** * Note:
 841:Generated_Source\PSoC4/TS_Timer.c **** *  It is not recommended to use the value equal to "0" or equal to 
 842:Generated_Source\PSoC4/TS_Timer.c **** *  "period value" in Center or Asymmetric align PWM modes on the 
 843:Generated_Source\PSoC4/TS_Timer.c **** *  PSoC 4100/PSoC 4200 devices.
 844:Generated_Source\PSoC4/TS_Timer.c **** *  PSoC 4000 devices write the 16 bit compare register with the decremented 
 845:Generated_Source\PSoC4/TS_Timer.c **** *  compare value in the Up counting mode (except 0x0u), and the incremented 
 846:Generated_Source\PSoC4/TS_Timer.c **** *  compare value in the Down counting mode (except 0xFFFFu).
 847:Generated_Source\PSoC4/TS_Timer.c **** *
 848:Generated_Source\PSoC4/TS_Timer.c **** *******************************************************************************/
 849:Generated_Source\PSoC4/TS_Timer.c **** void TS_Timer_WriteCompare(uint32 compare)
 850:Generated_Source\PSoC4/TS_Timer.c **** {
 740              		.loc 1 850 0
 741              		.cfi_startproc
 742              	.LVL54:
 851:Generated_Source\PSoC4/TS_Timer.c ****     #if (TS_Timer_CY_TCPWM_4000)
 852:Generated_Source\PSoC4/TS_Timer.c ****         uint32 currentMode;
 853:Generated_Source\PSoC4/TS_Timer.c ****     #endif /* (TS_Timer_CY_TCPWM_4000) */
 854:Generated_Source\PSoC4/TS_Timer.c **** 
ARM GAS  C:\Users\tiantiaf\AppData\Local\Temp\ccM0Tu1h.s 			page 29


 855:Generated_Source\PSoC4/TS_Timer.c ****     #if (TS_Timer_CY_TCPWM_4000)
 856:Generated_Source\PSoC4/TS_Timer.c ****         currentMode = ((TS_Timer_CONTROL_REG & TS_Timer_UPDOWN_MASK) >> TS_Timer_UPDOWN_SHIFT);
 857:Generated_Source\PSoC4/TS_Timer.c **** 
 858:Generated_Source\PSoC4/TS_Timer.c ****         if (((uint32)TS_Timer__COUNT_DOWN == currentMode) && (0xFFFFu != compare))
 859:Generated_Source\PSoC4/TS_Timer.c ****         {
 860:Generated_Source\PSoC4/TS_Timer.c ****             compare++;
 861:Generated_Source\PSoC4/TS_Timer.c ****         }
 862:Generated_Source\PSoC4/TS_Timer.c ****         else if (((uint32)TS_Timer__COUNT_UP == currentMode) && (0u != compare))
 863:Generated_Source\PSoC4/TS_Timer.c ****         {
 864:Generated_Source\PSoC4/TS_Timer.c ****             compare--;
 865:Generated_Source\PSoC4/TS_Timer.c ****         }
 866:Generated_Source\PSoC4/TS_Timer.c ****         else
 867:Generated_Source\PSoC4/TS_Timer.c ****         {
 868:Generated_Source\PSoC4/TS_Timer.c ****         }
 869:Generated_Source\PSoC4/TS_Timer.c ****         
 870:Generated_Source\PSoC4/TS_Timer.c ****     
 871:Generated_Source\PSoC4/TS_Timer.c ****     #endif /* (TS_Timer_CY_TCPWM_4000) */
 872:Generated_Source\PSoC4/TS_Timer.c ****     
 873:Generated_Source\PSoC4/TS_Timer.c ****     TS_Timer_COMP_CAP_REG = (compare & TS_Timer_16BIT_MASK);
 743              		.loc 1 873 0
 744 0000 0004     		lsl	r0, r0, #16
 745              	.LVL55:
 746 0002 000C     		lsr	r0, r0, #16
 747 0004 014B     		ldr	r3, .L59
 748 0006 1860     		str	r0, [r3]
 874:Generated_Source\PSoC4/TS_Timer.c **** }
 749              		.loc 1 874 0
 750              		@ sp needed
 751 0008 7047     		bx	lr
 752              	.L60:
 753 000a C046     		.align	2
 754              	.L59:
 755 000c 0C012040 		.word	1075839244
 756              		.cfi_endproc
 757              	.LFE24:
 758              		.size	TS_Timer_WriteCompare, .-TS_Timer_WriteCompare
 759              		.section	.text.TS_Timer_ReadCompare,"ax",%progbits
 760              		.align	2
 761              		.global	TS_Timer_ReadCompare
 762              		.code	16
 763              		.thumb_func
 764              		.type	TS_Timer_ReadCompare, %function
 765              	TS_Timer_ReadCompare:
 766              	.LFB25:
 875:Generated_Source\PSoC4/TS_Timer.c **** 
 876:Generated_Source\PSoC4/TS_Timer.c **** 
 877:Generated_Source\PSoC4/TS_Timer.c **** /*******************************************************************************
 878:Generated_Source\PSoC4/TS_Timer.c **** * Function Name: TS_Timer_ReadCompare
 879:Generated_Source\PSoC4/TS_Timer.c **** ********************************************************************************
 880:Generated_Source\PSoC4/TS_Timer.c **** *
 881:Generated_Source\PSoC4/TS_Timer.c **** * Summary:
 882:Generated_Source\PSoC4/TS_Timer.c **** *  Reads the compare register. Not applicable for Timer/Counter with Capture
 883:Generated_Source\PSoC4/TS_Timer.c **** *  or in Quadrature Decoder modes.
 884:Generated_Source\PSoC4/TS_Timer.c **** *  PSoC 4000 devices read the incremented compare register value in the 
 885:Generated_Source\PSoC4/TS_Timer.c **** *  Up counting mode (except 0xFFFFu), and the decremented value in the 
 886:Generated_Source\PSoC4/TS_Timer.c **** *  Down counting mode (except 0x0u).
 887:Generated_Source\PSoC4/TS_Timer.c **** *
ARM GAS  C:\Users\tiantiaf\AppData\Local\Temp\ccM0Tu1h.s 			page 30


 888:Generated_Source\PSoC4/TS_Timer.c **** * Parameters:
 889:Generated_Source\PSoC4/TS_Timer.c **** *  None
 890:Generated_Source\PSoC4/TS_Timer.c **** *
 891:Generated_Source\PSoC4/TS_Timer.c **** * Return:
 892:Generated_Source\PSoC4/TS_Timer.c **** *  Compare value
 893:Generated_Source\PSoC4/TS_Timer.c **** *
 894:Generated_Source\PSoC4/TS_Timer.c **** * Note:
 895:Generated_Source\PSoC4/TS_Timer.c **** *  PSoC 4000 devices read the incremented compare register value in the 
 896:Generated_Source\PSoC4/TS_Timer.c **** *  Up counting mode (except 0xFFFFu), and the decremented value in the 
 897:Generated_Source\PSoC4/TS_Timer.c **** *  Down counting mode (except 0x0u).
 898:Generated_Source\PSoC4/TS_Timer.c **** *
 899:Generated_Source\PSoC4/TS_Timer.c **** *******************************************************************************/
 900:Generated_Source\PSoC4/TS_Timer.c **** uint32 TS_Timer_ReadCompare(void)
 901:Generated_Source\PSoC4/TS_Timer.c **** {
 767              		.loc 1 901 0
 768              		.cfi_startproc
 902:Generated_Source\PSoC4/TS_Timer.c ****     #if (TS_Timer_CY_TCPWM_4000)
 903:Generated_Source\PSoC4/TS_Timer.c ****         uint32 currentMode;
 904:Generated_Source\PSoC4/TS_Timer.c ****         uint32 regVal;
 905:Generated_Source\PSoC4/TS_Timer.c ****     #endif /* (TS_Timer_CY_TCPWM_4000) */
 906:Generated_Source\PSoC4/TS_Timer.c **** 
 907:Generated_Source\PSoC4/TS_Timer.c ****     #if (TS_Timer_CY_TCPWM_4000)
 908:Generated_Source\PSoC4/TS_Timer.c ****         currentMode = ((TS_Timer_CONTROL_REG & TS_Timer_UPDOWN_MASK) >> TS_Timer_UPDOWN_SHIFT);
 909:Generated_Source\PSoC4/TS_Timer.c ****         
 910:Generated_Source\PSoC4/TS_Timer.c ****         regVal = TS_Timer_COMP_CAP_REG;
 911:Generated_Source\PSoC4/TS_Timer.c ****         
 912:Generated_Source\PSoC4/TS_Timer.c ****         if (((uint32)TS_Timer__COUNT_DOWN == currentMode) && (0u != regVal))
 913:Generated_Source\PSoC4/TS_Timer.c ****         {
 914:Generated_Source\PSoC4/TS_Timer.c ****             regVal--;
 915:Generated_Source\PSoC4/TS_Timer.c ****         }
 916:Generated_Source\PSoC4/TS_Timer.c ****         else if (((uint32)TS_Timer__COUNT_UP == currentMode) && (0xFFFFu != regVal))
 917:Generated_Source\PSoC4/TS_Timer.c ****         {
 918:Generated_Source\PSoC4/TS_Timer.c ****             regVal++;
 919:Generated_Source\PSoC4/TS_Timer.c ****         }
 920:Generated_Source\PSoC4/TS_Timer.c ****         else
 921:Generated_Source\PSoC4/TS_Timer.c ****         {
 922:Generated_Source\PSoC4/TS_Timer.c ****         }
 923:Generated_Source\PSoC4/TS_Timer.c **** 
 924:Generated_Source\PSoC4/TS_Timer.c ****         return (regVal & TS_Timer_16BIT_MASK);
 925:Generated_Source\PSoC4/TS_Timer.c ****     #else
 926:Generated_Source\PSoC4/TS_Timer.c ****         return (TS_Timer_COMP_CAP_REG & TS_Timer_16BIT_MASK);
 769              		.loc 1 926 0
 770 0000 024B     		ldr	r3, .L62
 771 0002 1868     		ldr	r0, [r3]
 772 0004 0004     		lsl	r0, r0, #16
 773 0006 000C     		lsr	r0, r0, #16
 927:Generated_Source\PSoC4/TS_Timer.c ****     #endif /* (TS_Timer_CY_TCPWM_4000) */
 928:Generated_Source\PSoC4/TS_Timer.c **** }
 774              		.loc 1 928 0
 775              		@ sp needed
 776 0008 7047     		bx	lr
 777              	.L63:
 778 000a C046     		.align	2
 779              	.L62:
 780 000c 0C012040 		.word	1075839244
 781              		.cfi_endproc
 782              	.LFE25:
ARM GAS  C:\Users\tiantiaf\AppData\Local\Temp\ccM0Tu1h.s 			page 31


 783              		.size	TS_Timer_ReadCompare, .-TS_Timer_ReadCompare
 784              		.section	.text.TS_Timer_WriteCompareBuf,"ax",%progbits
 785              		.align	2
 786              		.global	TS_Timer_WriteCompareBuf
 787              		.code	16
 788              		.thumb_func
 789              		.type	TS_Timer_WriteCompareBuf, %function
 790              	TS_Timer_WriteCompareBuf:
 791              	.LFB26:
 929:Generated_Source\PSoC4/TS_Timer.c **** 
 930:Generated_Source\PSoC4/TS_Timer.c **** 
 931:Generated_Source\PSoC4/TS_Timer.c **** /*******************************************************************************
 932:Generated_Source\PSoC4/TS_Timer.c **** * Function Name: TS_Timer_WriteCompareBuf
 933:Generated_Source\PSoC4/TS_Timer.c **** ********************************************************************************
 934:Generated_Source\PSoC4/TS_Timer.c **** *
 935:Generated_Source\PSoC4/TS_Timer.c **** * Summary:
 936:Generated_Source\PSoC4/TS_Timer.c **** *  Writes the 16 bit compare buffer register with the new compare value. Not
 937:Generated_Source\PSoC4/TS_Timer.c **** *  applicable for Timer/Counter with Capture or in Quadrature Decoder modes.
 938:Generated_Source\PSoC4/TS_Timer.c **** *
 939:Generated_Source\PSoC4/TS_Timer.c **** * Parameters:
 940:Generated_Source\PSoC4/TS_Timer.c **** *  compareBuf: Compare value
 941:Generated_Source\PSoC4/TS_Timer.c **** *
 942:Generated_Source\PSoC4/TS_Timer.c **** * Return:
 943:Generated_Source\PSoC4/TS_Timer.c **** *  None
 944:Generated_Source\PSoC4/TS_Timer.c **** *
 945:Generated_Source\PSoC4/TS_Timer.c **** * Note:
 946:Generated_Source\PSoC4/TS_Timer.c **** *  It is not recommended to use the value equal to "0" or equal to 
 947:Generated_Source\PSoC4/TS_Timer.c **** *  "period value" in Center or Asymmetric align PWM modes on the 
 948:Generated_Source\PSoC4/TS_Timer.c **** *  PSoC 4100/PSoC 4200 devices.
 949:Generated_Source\PSoC4/TS_Timer.c **** *  PSoC 4000 devices write the 16 bit compare register with the decremented 
 950:Generated_Source\PSoC4/TS_Timer.c **** *  compare value in the Up counting mode (except 0x0u), and the incremented 
 951:Generated_Source\PSoC4/TS_Timer.c **** *  compare value in the Down counting mode (except 0xFFFFu).
 952:Generated_Source\PSoC4/TS_Timer.c **** *
 953:Generated_Source\PSoC4/TS_Timer.c **** *******************************************************************************/
 954:Generated_Source\PSoC4/TS_Timer.c **** void TS_Timer_WriteCompareBuf(uint32 compareBuf)
 955:Generated_Source\PSoC4/TS_Timer.c **** {
 792              		.loc 1 955 0
 793              		.cfi_startproc
 794              	.LVL56:
 956:Generated_Source\PSoC4/TS_Timer.c ****     #if (TS_Timer_CY_TCPWM_4000)
 957:Generated_Source\PSoC4/TS_Timer.c ****         uint32 currentMode;
 958:Generated_Source\PSoC4/TS_Timer.c ****     #endif /* (TS_Timer_CY_TCPWM_4000) */
 959:Generated_Source\PSoC4/TS_Timer.c **** 
 960:Generated_Source\PSoC4/TS_Timer.c ****     #if (TS_Timer_CY_TCPWM_4000)
 961:Generated_Source\PSoC4/TS_Timer.c ****         currentMode = ((TS_Timer_CONTROL_REG & TS_Timer_UPDOWN_MASK) >> TS_Timer_UPDOWN_SHIFT);
 962:Generated_Source\PSoC4/TS_Timer.c **** 
 963:Generated_Source\PSoC4/TS_Timer.c ****         if (((uint32)TS_Timer__COUNT_DOWN == currentMode) && (0xFFFFu != compareBuf))
 964:Generated_Source\PSoC4/TS_Timer.c ****         {
 965:Generated_Source\PSoC4/TS_Timer.c ****             compareBuf++;
 966:Generated_Source\PSoC4/TS_Timer.c ****         }
 967:Generated_Source\PSoC4/TS_Timer.c ****         else if (((uint32)TS_Timer__COUNT_UP == currentMode) && (0u != compareBuf))
 968:Generated_Source\PSoC4/TS_Timer.c ****         {
 969:Generated_Source\PSoC4/TS_Timer.c ****             compareBuf --;
 970:Generated_Source\PSoC4/TS_Timer.c ****         }
 971:Generated_Source\PSoC4/TS_Timer.c ****         else
 972:Generated_Source\PSoC4/TS_Timer.c ****         {
 973:Generated_Source\PSoC4/TS_Timer.c ****         }
ARM GAS  C:\Users\tiantiaf\AppData\Local\Temp\ccM0Tu1h.s 			page 32


 974:Generated_Source\PSoC4/TS_Timer.c ****     #endif /* (TS_Timer_CY_TCPWM_4000) */
 975:Generated_Source\PSoC4/TS_Timer.c ****     
 976:Generated_Source\PSoC4/TS_Timer.c ****     TS_Timer_COMP_CAP_BUF_REG = (compareBuf & TS_Timer_16BIT_MASK);
 795              		.loc 1 976 0
 796 0000 0004     		lsl	r0, r0, #16
 797              	.LVL57:
 798 0002 000C     		lsr	r0, r0, #16
 799 0004 014B     		ldr	r3, .L65
 800 0006 1860     		str	r0, [r3]
 977:Generated_Source\PSoC4/TS_Timer.c **** }
 801              		.loc 1 977 0
 802              		@ sp needed
 803 0008 7047     		bx	lr
 804              	.L66:
 805 000a C046     		.align	2
 806              	.L65:
 807 000c 10012040 		.word	1075839248
 808              		.cfi_endproc
 809              	.LFE26:
 810              		.size	TS_Timer_WriteCompareBuf, .-TS_Timer_WriteCompareBuf
 811              		.section	.text.TS_Timer_ReadCompareBuf,"ax",%progbits
 812              		.align	2
 813              		.global	TS_Timer_ReadCompareBuf
 814              		.code	16
 815              		.thumb_func
 816              		.type	TS_Timer_ReadCompareBuf, %function
 817              	TS_Timer_ReadCompareBuf:
 818              	.LFB27:
 978:Generated_Source\PSoC4/TS_Timer.c **** 
 979:Generated_Source\PSoC4/TS_Timer.c **** 
 980:Generated_Source\PSoC4/TS_Timer.c **** /*******************************************************************************
 981:Generated_Source\PSoC4/TS_Timer.c **** * Function Name: TS_Timer_ReadCompareBuf
 982:Generated_Source\PSoC4/TS_Timer.c **** ********************************************************************************
 983:Generated_Source\PSoC4/TS_Timer.c **** *
 984:Generated_Source\PSoC4/TS_Timer.c **** * Summary:
 985:Generated_Source\PSoC4/TS_Timer.c **** *  Reads the compare buffer register. Not applicable for Timer/Counter with
 986:Generated_Source\PSoC4/TS_Timer.c **** *  Capture or in Quadrature Decoder modes.
 987:Generated_Source\PSoC4/TS_Timer.c **** *
 988:Generated_Source\PSoC4/TS_Timer.c **** * Parameters:
 989:Generated_Source\PSoC4/TS_Timer.c **** *  None
 990:Generated_Source\PSoC4/TS_Timer.c **** *
 991:Generated_Source\PSoC4/TS_Timer.c **** * Return:
 992:Generated_Source\PSoC4/TS_Timer.c **** *  Compare buffer value
 993:Generated_Source\PSoC4/TS_Timer.c **** *
 994:Generated_Source\PSoC4/TS_Timer.c **** * Note:
 995:Generated_Source\PSoC4/TS_Timer.c **** *  PSoC 4000 devices read the incremented compare register value in the 
 996:Generated_Source\PSoC4/TS_Timer.c **** *  Up counting mode (except 0xFFFFu), and the decremented value in the 
 997:Generated_Source\PSoC4/TS_Timer.c **** *  Down counting mode (except 0x0u).
 998:Generated_Source\PSoC4/TS_Timer.c **** *
 999:Generated_Source\PSoC4/TS_Timer.c **** *******************************************************************************/
1000:Generated_Source\PSoC4/TS_Timer.c **** uint32 TS_Timer_ReadCompareBuf(void)
1001:Generated_Source\PSoC4/TS_Timer.c **** {
 819              		.loc 1 1001 0
 820              		.cfi_startproc
1002:Generated_Source\PSoC4/TS_Timer.c ****     #if (TS_Timer_CY_TCPWM_4000)
1003:Generated_Source\PSoC4/TS_Timer.c ****         uint32 currentMode;
1004:Generated_Source\PSoC4/TS_Timer.c ****         uint32 regVal;
ARM GAS  C:\Users\tiantiaf\AppData\Local\Temp\ccM0Tu1h.s 			page 33


1005:Generated_Source\PSoC4/TS_Timer.c ****     #endif /* (TS_Timer_CY_TCPWM_4000) */
1006:Generated_Source\PSoC4/TS_Timer.c **** 
1007:Generated_Source\PSoC4/TS_Timer.c ****     #if (TS_Timer_CY_TCPWM_4000)
1008:Generated_Source\PSoC4/TS_Timer.c ****         currentMode = ((TS_Timer_CONTROL_REG & TS_Timer_UPDOWN_MASK) >> TS_Timer_UPDOWN_SHIFT);
1009:Generated_Source\PSoC4/TS_Timer.c **** 
1010:Generated_Source\PSoC4/TS_Timer.c ****         regVal = TS_Timer_COMP_CAP_BUF_REG;
1011:Generated_Source\PSoC4/TS_Timer.c ****         
1012:Generated_Source\PSoC4/TS_Timer.c ****         if (((uint32)TS_Timer__COUNT_DOWN == currentMode) && (0u != regVal))
1013:Generated_Source\PSoC4/TS_Timer.c ****         {
1014:Generated_Source\PSoC4/TS_Timer.c ****             regVal--;
1015:Generated_Source\PSoC4/TS_Timer.c ****         }
1016:Generated_Source\PSoC4/TS_Timer.c ****         else if (((uint32)TS_Timer__COUNT_UP == currentMode) && (0xFFFFu != regVal))
1017:Generated_Source\PSoC4/TS_Timer.c ****         {
1018:Generated_Source\PSoC4/TS_Timer.c ****             regVal++;
1019:Generated_Source\PSoC4/TS_Timer.c ****         }
1020:Generated_Source\PSoC4/TS_Timer.c ****         else
1021:Generated_Source\PSoC4/TS_Timer.c ****         {
1022:Generated_Source\PSoC4/TS_Timer.c ****         }
1023:Generated_Source\PSoC4/TS_Timer.c **** 
1024:Generated_Source\PSoC4/TS_Timer.c ****         return (regVal & TS_Timer_16BIT_MASK);
1025:Generated_Source\PSoC4/TS_Timer.c ****     #else
1026:Generated_Source\PSoC4/TS_Timer.c ****         return (TS_Timer_COMP_CAP_BUF_REG & TS_Timer_16BIT_MASK);
 821              		.loc 1 1026 0
 822 0000 024B     		ldr	r3, .L68
 823 0002 1868     		ldr	r0, [r3]
 824 0004 0004     		lsl	r0, r0, #16
 825 0006 000C     		lsr	r0, r0, #16
1027:Generated_Source\PSoC4/TS_Timer.c ****     #endif /* (TS_Timer_CY_TCPWM_4000) */
1028:Generated_Source\PSoC4/TS_Timer.c **** }
 826              		.loc 1 1028 0
 827              		@ sp needed
 828 0008 7047     		bx	lr
 829              	.L69:
 830 000a C046     		.align	2
 831              	.L68:
 832 000c 10012040 		.word	1075839248
 833              		.cfi_endproc
 834              	.LFE27:
 835              		.size	TS_Timer_ReadCompareBuf, .-TS_Timer_ReadCompareBuf
 836              		.section	.text.TS_Timer_ReadCapture,"ax",%progbits
 837              		.align	2
 838              		.global	TS_Timer_ReadCapture
 839              		.code	16
 840              		.thumb_func
 841              		.type	TS_Timer_ReadCapture, %function
 842              	TS_Timer_ReadCapture:
 843              	.LFB28:
1029:Generated_Source\PSoC4/TS_Timer.c **** 
1030:Generated_Source\PSoC4/TS_Timer.c **** 
1031:Generated_Source\PSoC4/TS_Timer.c **** /*******************************************************************************
1032:Generated_Source\PSoC4/TS_Timer.c **** * Function Name: TS_Timer_ReadCapture
1033:Generated_Source\PSoC4/TS_Timer.c **** ********************************************************************************
1034:Generated_Source\PSoC4/TS_Timer.c **** *
1035:Generated_Source\PSoC4/TS_Timer.c **** * Summary:
1036:Generated_Source\PSoC4/TS_Timer.c **** *  Reads the captured counter value. This API is applicable only for
1037:Generated_Source\PSoC4/TS_Timer.c **** *  Timer/Counter with the capture mode and Quadrature Decoder modes.
1038:Generated_Source\PSoC4/TS_Timer.c **** *
ARM GAS  C:\Users\tiantiaf\AppData\Local\Temp\ccM0Tu1h.s 			page 34


1039:Generated_Source\PSoC4/TS_Timer.c **** * Parameters:
1040:Generated_Source\PSoC4/TS_Timer.c **** *  None
1041:Generated_Source\PSoC4/TS_Timer.c **** *
1042:Generated_Source\PSoC4/TS_Timer.c **** * Return:
1043:Generated_Source\PSoC4/TS_Timer.c **** *  Capture value
1044:Generated_Source\PSoC4/TS_Timer.c **** *
1045:Generated_Source\PSoC4/TS_Timer.c **** *******************************************************************************/
1046:Generated_Source\PSoC4/TS_Timer.c **** uint32 TS_Timer_ReadCapture(void)
1047:Generated_Source\PSoC4/TS_Timer.c **** {
 844              		.loc 1 1047 0
 845              		.cfi_startproc
1048:Generated_Source\PSoC4/TS_Timer.c ****     return (TS_Timer_COMP_CAP_REG & TS_Timer_16BIT_MASK);
 846              		.loc 1 1048 0
 847 0000 024B     		ldr	r3, .L71
 848 0002 1868     		ldr	r0, [r3]
 849 0004 0004     		lsl	r0, r0, #16
 850 0006 000C     		lsr	r0, r0, #16
1049:Generated_Source\PSoC4/TS_Timer.c **** }
 851              		.loc 1 1049 0
 852              		@ sp needed
 853 0008 7047     		bx	lr
 854              	.L72:
 855 000a C046     		.align	2
 856              	.L71:
 857 000c 0C012040 		.word	1075839244
 858              		.cfi_endproc
 859              	.LFE28:
 860              		.size	TS_Timer_ReadCapture, .-TS_Timer_ReadCapture
 861              		.section	.text.TS_Timer_ReadCaptureBuf,"ax",%progbits
 862              		.align	2
 863              		.global	TS_Timer_ReadCaptureBuf
 864              		.code	16
 865              		.thumb_func
 866              		.type	TS_Timer_ReadCaptureBuf, %function
 867              	TS_Timer_ReadCaptureBuf:
 868              	.LFB29:
1050:Generated_Source\PSoC4/TS_Timer.c **** 
1051:Generated_Source\PSoC4/TS_Timer.c **** 
1052:Generated_Source\PSoC4/TS_Timer.c **** /*******************************************************************************
1053:Generated_Source\PSoC4/TS_Timer.c **** * Function Name: TS_Timer_ReadCaptureBuf
1054:Generated_Source\PSoC4/TS_Timer.c **** ********************************************************************************
1055:Generated_Source\PSoC4/TS_Timer.c **** *
1056:Generated_Source\PSoC4/TS_Timer.c **** * Summary:
1057:Generated_Source\PSoC4/TS_Timer.c **** *  Reads the capture buffer register. This API is applicable only for
1058:Generated_Source\PSoC4/TS_Timer.c **** *  Timer/Counter with the capture mode and Quadrature Decoder modes.
1059:Generated_Source\PSoC4/TS_Timer.c **** *
1060:Generated_Source\PSoC4/TS_Timer.c **** * Parameters:
1061:Generated_Source\PSoC4/TS_Timer.c **** *  None
1062:Generated_Source\PSoC4/TS_Timer.c **** *
1063:Generated_Source\PSoC4/TS_Timer.c **** * Return:
1064:Generated_Source\PSoC4/TS_Timer.c **** *  Capture buffer value
1065:Generated_Source\PSoC4/TS_Timer.c **** *
1066:Generated_Source\PSoC4/TS_Timer.c **** *******************************************************************************/
1067:Generated_Source\PSoC4/TS_Timer.c **** uint32 TS_Timer_ReadCaptureBuf(void)
1068:Generated_Source\PSoC4/TS_Timer.c **** {
 869              		.loc 1 1068 0
 870              		.cfi_startproc
ARM GAS  C:\Users\tiantiaf\AppData\Local\Temp\ccM0Tu1h.s 			page 35


1069:Generated_Source\PSoC4/TS_Timer.c ****     return (TS_Timer_COMP_CAP_BUF_REG & TS_Timer_16BIT_MASK);
 871              		.loc 1 1069 0
 872 0000 024B     		ldr	r3, .L74
 873 0002 1868     		ldr	r0, [r3]
 874 0004 0004     		lsl	r0, r0, #16
 875 0006 000C     		lsr	r0, r0, #16
1070:Generated_Source\PSoC4/TS_Timer.c **** }
 876              		.loc 1 1070 0
 877              		@ sp needed
 878 0008 7047     		bx	lr
 879              	.L75:
 880 000a C046     		.align	2
 881              	.L74:
 882 000c 10012040 		.word	1075839248
 883              		.cfi_endproc
 884              	.LFE29:
 885              		.size	TS_Timer_ReadCaptureBuf, .-TS_Timer_ReadCaptureBuf
 886              		.section	.text.TS_Timer_SetCaptureMode,"ax",%progbits
 887              		.align	2
 888              		.global	TS_Timer_SetCaptureMode
 889              		.code	16
 890              		.thumb_func
 891              		.type	TS_Timer_SetCaptureMode, %function
 892              	TS_Timer_SetCaptureMode:
 893              	.LFB30:
1071:Generated_Source\PSoC4/TS_Timer.c **** 
1072:Generated_Source\PSoC4/TS_Timer.c **** 
1073:Generated_Source\PSoC4/TS_Timer.c **** /*******************************************************************************
1074:Generated_Source\PSoC4/TS_Timer.c **** * Function Name: TS_Timer_SetCaptureMode
1075:Generated_Source\PSoC4/TS_Timer.c **** ********************************************************************************
1076:Generated_Source\PSoC4/TS_Timer.c **** *
1077:Generated_Source\PSoC4/TS_Timer.c **** * Summary:
1078:Generated_Source\PSoC4/TS_Timer.c **** *  Sets the capture trigger mode. For PWM mode this is the switch input.
1079:Generated_Source\PSoC4/TS_Timer.c **** *  This input is not applicable to the Timer/Counter without Capture and
1080:Generated_Source\PSoC4/TS_Timer.c **** *  Quadrature Decoder modes.
1081:Generated_Source\PSoC4/TS_Timer.c **** *
1082:Generated_Source\PSoC4/TS_Timer.c **** * Parameters:
1083:Generated_Source\PSoC4/TS_Timer.c **** *  triggerMode: Enumerated trigger mode value
1084:Generated_Source\PSoC4/TS_Timer.c **** *   Values:
1085:Generated_Source\PSoC4/TS_Timer.c **** *     - TS_Timer_TRIG_LEVEL     - Level
1086:Generated_Source\PSoC4/TS_Timer.c **** *     - TS_Timer_TRIG_RISING    - Rising edge
1087:Generated_Source\PSoC4/TS_Timer.c **** *     - TS_Timer_TRIG_FALLING   - Falling edge
1088:Generated_Source\PSoC4/TS_Timer.c **** *     - TS_Timer_TRIG_BOTH      - Both rising and falling edge
1089:Generated_Source\PSoC4/TS_Timer.c **** *
1090:Generated_Source\PSoC4/TS_Timer.c **** * Return:
1091:Generated_Source\PSoC4/TS_Timer.c **** *  None
1092:Generated_Source\PSoC4/TS_Timer.c **** *
1093:Generated_Source\PSoC4/TS_Timer.c **** *******************************************************************************/
1094:Generated_Source\PSoC4/TS_Timer.c **** void TS_Timer_SetCaptureMode(uint32 triggerMode)
1095:Generated_Source\PSoC4/TS_Timer.c **** {
 894              		.loc 1 1095 0
 895              		.cfi_startproc
 896              	.LVL58:
 897 0000 10B5     		push	{r4, lr}
 898              		.cfi_def_cfa_offset 8
 899              		.cfi_offset 4, -8
 900              		.cfi_offset 14, -4
ARM GAS  C:\Users\tiantiaf\AppData\Local\Temp\ccM0Tu1h.s 			page 36


 901 0002 041C     		mov	r4, r0
1096:Generated_Source\PSoC4/TS_Timer.c ****     uint8 enableInterrupts;
1097:Generated_Source\PSoC4/TS_Timer.c **** 
1098:Generated_Source\PSoC4/TS_Timer.c ****     enableInterrupts = CyEnterCriticalSection();
 902              		.loc 1 1098 0
 903 0004 FFF7FEFF 		bl	CyEnterCriticalSection
 904              	.LVL59:
1099:Generated_Source\PSoC4/TS_Timer.c **** 
1100:Generated_Source\PSoC4/TS_Timer.c ****     TS_Timer_TRIG_CONTROL1_REG &= (uint32)~TS_Timer_CAPTURE_MASK;
 905              		.loc 1 1100 0
 906 0008 054B     		ldr	r3, .L77
 907 000a 1A68     		ldr	r2, [r3]
 908 000c 0321     		mov	r1, #3
 909 000e 8A43     		bic	r2, r1
 910 0010 1A60     		str	r2, [r3]
1101:Generated_Source\PSoC4/TS_Timer.c ****     TS_Timer_TRIG_CONTROL1_REG |= triggerMode;
 911              		.loc 1 1101 0
 912 0012 1A68     		ldr	r2, [r3]
 913 0014 1443     		orr	r4, r2
 914              	.LVL60:
 915 0016 1C60     		str	r4, [r3]
1102:Generated_Source\PSoC4/TS_Timer.c **** 
1103:Generated_Source\PSoC4/TS_Timer.c ****     CyExitCriticalSection(enableInterrupts);
 916              		.loc 1 1103 0
 917 0018 FFF7FEFF 		bl	CyExitCriticalSection
 918              	.LVL61:
1104:Generated_Source\PSoC4/TS_Timer.c **** }
 919              		.loc 1 1104 0
 920              		@ sp needed
 921 001c 10BD     		pop	{r4, pc}
 922              	.L78:
 923 001e C046     		.align	2
 924              	.L77:
 925 0020 24012040 		.word	1075839268
 926              		.cfi_endproc
 927              	.LFE30:
 928              		.size	TS_Timer_SetCaptureMode, .-TS_Timer_SetCaptureMode
 929              		.section	.text.TS_Timer_SetReloadMode,"ax",%progbits
 930              		.align	2
 931              		.global	TS_Timer_SetReloadMode
 932              		.code	16
 933              		.thumb_func
 934              		.type	TS_Timer_SetReloadMode, %function
 935              	TS_Timer_SetReloadMode:
 936              	.LFB31:
1105:Generated_Source\PSoC4/TS_Timer.c **** 
1106:Generated_Source\PSoC4/TS_Timer.c **** 
1107:Generated_Source\PSoC4/TS_Timer.c **** /*******************************************************************************
1108:Generated_Source\PSoC4/TS_Timer.c **** * Function Name: TS_Timer_SetReloadMode
1109:Generated_Source\PSoC4/TS_Timer.c **** ********************************************************************************
1110:Generated_Source\PSoC4/TS_Timer.c **** *
1111:Generated_Source\PSoC4/TS_Timer.c **** * Summary:
1112:Generated_Source\PSoC4/TS_Timer.c **** *  Sets the reload trigger mode. For Quadrature Decoder mode this is the index
1113:Generated_Source\PSoC4/TS_Timer.c **** *  input.
1114:Generated_Source\PSoC4/TS_Timer.c **** *
1115:Generated_Source\PSoC4/TS_Timer.c **** * Parameters:
1116:Generated_Source\PSoC4/TS_Timer.c **** *  triggerMode: Enumerated trigger mode value
ARM GAS  C:\Users\tiantiaf\AppData\Local\Temp\ccM0Tu1h.s 			page 37


1117:Generated_Source\PSoC4/TS_Timer.c **** *   Values:
1118:Generated_Source\PSoC4/TS_Timer.c **** *     - TS_Timer_TRIG_LEVEL     - Level
1119:Generated_Source\PSoC4/TS_Timer.c **** *     - TS_Timer_TRIG_RISING    - Rising edge
1120:Generated_Source\PSoC4/TS_Timer.c **** *     - TS_Timer_TRIG_FALLING   - Falling edge
1121:Generated_Source\PSoC4/TS_Timer.c **** *     - TS_Timer_TRIG_BOTH      - Both rising and falling edge
1122:Generated_Source\PSoC4/TS_Timer.c **** *
1123:Generated_Source\PSoC4/TS_Timer.c **** * Return:
1124:Generated_Source\PSoC4/TS_Timer.c **** *  None
1125:Generated_Source\PSoC4/TS_Timer.c **** *
1126:Generated_Source\PSoC4/TS_Timer.c **** *******************************************************************************/
1127:Generated_Source\PSoC4/TS_Timer.c **** void TS_Timer_SetReloadMode(uint32 triggerMode)
1128:Generated_Source\PSoC4/TS_Timer.c **** {
 937              		.loc 1 1128 0
 938              		.cfi_startproc
 939              	.LVL62:
 940 0000 10B5     		push	{r4, lr}
 941              		.cfi_def_cfa_offset 8
 942              		.cfi_offset 4, -8
 943              		.cfi_offset 14, -4
 944 0002 041C     		mov	r4, r0
1129:Generated_Source\PSoC4/TS_Timer.c ****     uint8 enableInterrupts;
1130:Generated_Source\PSoC4/TS_Timer.c **** 
1131:Generated_Source\PSoC4/TS_Timer.c ****     enableInterrupts = CyEnterCriticalSection();
 945              		.loc 1 1131 0
 946 0004 FFF7FEFF 		bl	CyEnterCriticalSection
 947              	.LVL63:
1132:Generated_Source\PSoC4/TS_Timer.c **** 
1133:Generated_Source\PSoC4/TS_Timer.c ****     TS_Timer_TRIG_CONTROL1_REG &= (uint32)~TS_Timer_RELOAD_MASK;
 948              		.loc 1 1133 0
 949 0008 054B     		ldr	r3, .L80
 950 000a 1A68     		ldr	r2, [r3]
 951 000c 3021     		mov	r1, #48
 952 000e 8A43     		bic	r2, r1
 953 0010 1A60     		str	r2, [r3]
1134:Generated_Source\PSoC4/TS_Timer.c ****     TS_Timer_TRIG_CONTROL1_REG |= ((uint32)(triggerMode << TS_Timer_RELOAD_SHIFT));
 954              		.loc 1 1134 0
 955 0012 1A68     		ldr	r2, [r3]
 956 0014 2401     		lsl	r4, r4, #4
 957              	.LVL64:
 958 0016 1443     		orr	r4, r2
 959 0018 1C60     		str	r4, [r3]
1135:Generated_Source\PSoC4/TS_Timer.c **** 
1136:Generated_Source\PSoC4/TS_Timer.c ****     CyExitCriticalSection(enableInterrupts);
 960              		.loc 1 1136 0
 961 001a FFF7FEFF 		bl	CyExitCriticalSection
 962              	.LVL65:
1137:Generated_Source\PSoC4/TS_Timer.c **** }
 963              		.loc 1 1137 0
 964              		@ sp needed
 965 001e 10BD     		pop	{r4, pc}
 966              	.L81:
 967              		.align	2
 968              	.L80:
 969 0020 24012040 		.word	1075839268
 970              		.cfi_endproc
 971              	.LFE31:
 972              		.size	TS_Timer_SetReloadMode, .-TS_Timer_SetReloadMode
ARM GAS  C:\Users\tiantiaf\AppData\Local\Temp\ccM0Tu1h.s 			page 38


 973              		.section	.text.TS_Timer_SetStartMode,"ax",%progbits
 974              		.align	2
 975              		.global	TS_Timer_SetStartMode
 976              		.code	16
 977              		.thumb_func
 978              		.type	TS_Timer_SetStartMode, %function
 979              	TS_Timer_SetStartMode:
 980              	.LFB32:
1138:Generated_Source\PSoC4/TS_Timer.c **** 
1139:Generated_Source\PSoC4/TS_Timer.c **** 
1140:Generated_Source\PSoC4/TS_Timer.c **** /*******************************************************************************
1141:Generated_Source\PSoC4/TS_Timer.c **** * Function Name: TS_Timer_SetStartMode
1142:Generated_Source\PSoC4/TS_Timer.c **** ********************************************************************************
1143:Generated_Source\PSoC4/TS_Timer.c **** *
1144:Generated_Source\PSoC4/TS_Timer.c **** * Summary:
1145:Generated_Source\PSoC4/TS_Timer.c **** *  Sets the start trigger mode. For Quadrature Decoder mode this is the
1146:Generated_Source\PSoC4/TS_Timer.c **** *  phiB input.
1147:Generated_Source\PSoC4/TS_Timer.c **** *
1148:Generated_Source\PSoC4/TS_Timer.c **** * Parameters:
1149:Generated_Source\PSoC4/TS_Timer.c **** *  triggerMode: Enumerated trigger mode value
1150:Generated_Source\PSoC4/TS_Timer.c **** *   Values:
1151:Generated_Source\PSoC4/TS_Timer.c **** *     - TS_Timer_TRIG_LEVEL     - Level
1152:Generated_Source\PSoC4/TS_Timer.c **** *     - TS_Timer_TRIG_RISING    - Rising edge
1153:Generated_Source\PSoC4/TS_Timer.c **** *     - TS_Timer_TRIG_FALLING   - Falling edge
1154:Generated_Source\PSoC4/TS_Timer.c **** *     - TS_Timer_TRIG_BOTH      - Both rising and falling edge
1155:Generated_Source\PSoC4/TS_Timer.c **** *
1156:Generated_Source\PSoC4/TS_Timer.c **** * Return:
1157:Generated_Source\PSoC4/TS_Timer.c **** *  None
1158:Generated_Source\PSoC4/TS_Timer.c **** *
1159:Generated_Source\PSoC4/TS_Timer.c **** *******************************************************************************/
1160:Generated_Source\PSoC4/TS_Timer.c **** void TS_Timer_SetStartMode(uint32 triggerMode)
1161:Generated_Source\PSoC4/TS_Timer.c **** {
 981              		.loc 1 1161 0
 982              		.cfi_startproc
 983              	.LVL66:
 984 0000 10B5     		push	{r4, lr}
 985              		.cfi_def_cfa_offset 8
 986              		.cfi_offset 4, -8
 987              		.cfi_offset 14, -4
 988 0002 041C     		mov	r4, r0
1162:Generated_Source\PSoC4/TS_Timer.c ****     uint8 enableInterrupts;
1163:Generated_Source\PSoC4/TS_Timer.c **** 
1164:Generated_Source\PSoC4/TS_Timer.c ****     enableInterrupts = CyEnterCriticalSection();
 989              		.loc 1 1164 0
 990 0004 FFF7FEFF 		bl	CyEnterCriticalSection
 991              	.LVL67:
1165:Generated_Source\PSoC4/TS_Timer.c **** 
1166:Generated_Source\PSoC4/TS_Timer.c ****     TS_Timer_TRIG_CONTROL1_REG &= (uint32)~TS_Timer_START_MASK;
 992              		.loc 1 1166 0
 993 0008 054B     		ldr	r3, .L83
 994 000a 1968     		ldr	r1, [r3]
 995 000c 054A     		ldr	r2, .L83+4
 996 000e 0A40     		and	r2, r1
 997 0010 1A60     		str	r2, [r3]
1167:Generated_Source\PSoC4/TS_Timer.c ****     TS_Timer_TRIG_CONTROL1_REG |= ((uint32)(triggerMode << TS_Timer_START_SHIFT));
 998              		.loc 1 1167 0
 999 0012 1A68     		ldr	r2, [r3]
ARM GAS  C:\Users\tiantiaf\AppData\Local\Temp\ccM0Tu1h.s 			page 39


 1000 0014 2402     		lsl	r4, r4, #8
 1001              	.LVL68:
 1002 0016 1443     		orr	r4, r2
 1003 0018 1C60     		str	r4, [r3]
1168:Generated_Source\PSoC4/TS_Timer.c **** 
1169:Generated_Source\PSoC4/TS_Timer.c ****     CyExitCriticalSection(enableInterrupts);
 1004              		.loc 1 1169 0
 1005 001a FFF7FEFF 		bl	CyExitCriticalSection
 1006              	.LVL69:
1170:Generated_Source\PSoC4/TS_Timer.c **** }
 1007              		.loc 1 1170 0
 1008              		@ sp needed
 1009 001e 10BD     		pop	{r4, pc}
 1010              	.L84:
 1011              		.align	2
 1012              	.L83:
 1013 0020 24012040 		.word	1075839268
 1014 0024 FFFCFFFF 		.word	-769
 1015              		.cfi_endproc
 1016              	.LFE32:
 1017              		.size	TS_Timer_SetStartMode, .-TS_Timer_SetStartMode
 1018              		.section	.text.TS_Timer_SetStopMode,"ax",%progbits
 1019              		.align	2
 1020              		.global	TS_Timer_SetStopMode
 1021              		.code	16
 1022              		.thumb_func
 1023              		.type	TS_Timer_SetStopMode, %function
 1024              	TS_Timer_SetStopMode:
 1025              	.LFB33:
1171:Generated_Source\PSoC4/TS_Timer.c **** 
1172:Generated_Source\PSoC4/TS_Timer.c **** 
1173:Generated_Source\PSoC4/TS_Timer.c **** /*******************************************************************************
1174:Generated_Source\PSoC4/TS_Timer.c **** * Function Name: TS_Timer_SetStopMode
1175:Generated_Source\PSoC4/TS_Timer.c **** ********************************************************************************
1176:Generated_Source\PSoC4/TS_Timer.c **** *
1177:Generated_Source\PSoC4/TS_Timer.c **** * Summary:
1178:Generated_Source\PSoC4/TS_Timer.c **** *  Sets the stop trigger mode. For PWM mode this is the kill input.
1179:Generated_Source\PSoC4/TS_Timer.c **** *
1180:Generated_Source\PSoC4/TS_Timer.c **** * Parameters:
1181:Generated_Source\PSoC4/TS_Timer.c **** *  triggerMode: Enumerated trigger mode value
1182:Generated_Source\PSoC4/TS_Timer.c **** *   Values:
1183:Generated_Source\PSoC4/TS_Timer.c **** *     - TS_Timer_TRIG_LEVEL     - Level
1184:Generated_Source\PSoC4/TS_Timer.c **** *     - TS_Timer_TRIG_RISING    - Rising edge
1185:Generated_Source\PSoC4/TS_Timer.c **** *     - TS_Timer_TRIG_FALLING   - Falling edge
1186:Generated_Source\PSoC4/TS_Timer.c **** *     - TS_Timer_TRIG_BOTH      - Both rising and falling edge
1187:Generated_Source\PSoC4/TS_Timer.c **** *
1188:Generated_Source\PSoC4/TS_Timer.c **** * Return:
1189:Generated_Source\PSoC4/TS_Timer.c **** *  None
1190:Generated_Source\PSoC4/TS_Timer.c **** *
1191:Generated_Source\PSoC4/TS_Timer.c **** *******************************************************************************/
1192:Generated_Source\PSoC4/TS_Timer.c **** void TS_Timer_SetStopMode(uint32 triggerMode)
1193:Generated_Source\PSoC4/TS_Timer.c **** {
 1026              		.loc 1 1193 0
 1027              		.cfi_startproc
 1028              	.LVL70:
 1029 0000 10B5     		push	{r4, lr}
 1030              		.cfi_def_cfa_offset 8
ARM GAS  C:\Users\tiantiaf\AppData\Local\Temp\ccM0Tu1h.s 			page 40


 1031              		.cfi_offset 4, -8
 1032              		.cfi_offset 14, -4
 1033 0002 041C     		mov	r4, r0
1194:Generated_Source\PSoC4/TS_Timer.c ****     uint8 enableInterrupts;
1195:Generated_Source\PSoC4/TS_Timer.c **** 
1196:Generated_Source\PSoC4/TS_Timer.c ****     enableInterrupts = CyEnterCriticalSection();
 1034              		.loc 1 1196 0
 1035 0004 FFF7FEFF 		bl	CyEnterCriticalSection
 1036              	.LVL71:
1197:Generated_Source\PSoC4/TS_Timer.c **** 
1198:Generated_Source\PSoC4/TS_Timer.c ****     TS_Timer_TRIG_CONTROL1_REG &= (uint32)~TS_Timer_STOP_MASK;
 1037              		.loc 1 1198 0
 1038 0008 054B     		ldr	r3, .L86
 1039 000a 1A68     		ldr	r2, [r3]
 1040 000c C021     		mov	r1, #192
 1041 000e 8A43     		bic	r2, r1
 1042 0010 1A60     		str	r2, [r3]
1199:Generated_Source\PSoC4/TS_Timer.c ****     TS_Timer_TRIG_CONTROL1_REG |= ((uint32)(triggerMode << TS_Timer_STOP_SHIFT));
 1043              		.loc 1 1199 0
 1044 0012 1A68     		ldr	r2, [r3]
 1045 0014 A401     		lsl	r4, r4, #6
 1046              	.LVL72:
 1047 0016 1443     		orr	r4, r2
 1048 0018 1C60     		str	r4, [r3]
1200:Generated_Source\PSoC4/TS_Timer.c **** 
1201:Generated_Source\PSoC4/TS_Timer.c ****     CyExitCriticalSection(enableInterrupts);
 1049              		.loc 1 1201 0
 1050 001a FFF7FEFF 		bl	CyExitCriticalSection
 1051              	.LVL73:
1202:Generated_Source\PSoC4/TS_Timer.c **** }
 1052              		.loc 1 1202 0
 1053              		@ sp needed
 1054 001e 10BD     		pop	{r4, pc}
 1055              	.L87:
 1056              		.align	2
 1057              	.L86:
 1058 0020 24012040 		.word	1075839268
 1059              		.cfi_endproc
 1060              	.LFE33:
 1061              		.size	TS_Timer_SetStopMode, .-TS_Timer_SetStopMode
 1062              		.section	.text.TS_Timer_SetCountMode,"ax",%progbits
 1063              		.align	2
 1064              		.global	TS_Timer_SetCountMode
 1065              		.code	16
 1066              		.thumb_func
 1067              		.type	TS_Timer_SetCountMode, %function
 1068              	TS_Timer_SetCountMode:
 1069              	.LFB34:
1203:Generated_Source\PSoC4/TS_Timer.c **** 
1204:Generated_Source\PSoC4/TS_Timer.c **** 
1205:Generated_Source\PSoC4/TS_Timer.c **** /*******************************************************************************
1206:Generated_Source\PSoC4/TS_Timer.c **** * Function Name: TS_Timer_SetCountMode
1207:Generated_Source\PSoC4/TS_Timer.c **** ********************************************************************************
1208:Generated_Source\PSoC4/TS_Timer.c **** *
1209:Generated_Source\PSoC4/TS_Timer.c **** * Summary:
1210:Generated_Source\PSoC4/TS_Timer.c **** *  Sets the count trigger mode. For Quadrature Decoder mode this is the phiA
1211:Generated_Source\PSoC4/TS_Timer.c **** *  input.
ARM GAS  C:\Users\tiantiaf\AppData\Local\Temp\ccM0Tu1h.s 			page 41


1212:Generated_Source\PSoC4/TS_Timer.c **** *
1213:Generated_Source\PSoC4/TS_Timer.c **** * Parameters:
1214:Generated_Source\PSoC4/TS_Timer.c **** *  triggerMode: Enumerated trigger mode value
1215:Generated_Source\PSoC4/TS_Timer.c **** *   Values:
1216:Generated_Source\PSoC4/TS_Timer.c **** *     - TS_Timer_TRIG_LEVEL     - Level
1217:Generated_Source\PSoC4/TS_Timer.c **** *     - TS_Timer_TRIG_RISING    - Rising edge
1218:Generated_Source\PSoC4/TS_Timer.c **** *     - TS_Timer_TRIG_FALLING   - Falling edge
1219:Generated_Source\PSoC4/TS_Timer.c **** *     - TS_Timer_TRIG_BOTH      - Both rising and falling edge
1220:Generated_Source\PSoC4/TS_Timer.c **** *
1221:Generated_Source\PSoC4/TS_Timer.c **** * Return:
1222:Generated_Source\PSoC4/TS_Timer.c **** *  None
1223:Generated_Source\PSoC4/TS_Timer.c **** *
1224:Generated_Source\PSoC4/TS_Timer.c **** *******************************************************************************/
1225:Generated_Source\PSoC4/TS_Timer.c **** void TS_Timer_SetCountMode(uint32 triggerMode)
1226:Generated_Source\PSoC4/TS_Timer.c **** {
 1070              		.loc 1 1226 0
 1071              		.cfi_startproc
 1072              	.LVL74:
 1073 0000 10B5     		push	{r4, lr}
 1074              		.cfi_def_cfa_offset 8
 1075              		.cfi_offset 4, -8
 1076              		.cfi_offset 14, -4
 1077 0002 041C     		mov	r4, r0
1227:Generated_Source\PSoC4/TS_Timer.c ****     uint8 enableInterrupts;
1228:Generated_Source\PSoC4/TS_Timer.c **** 
1229:Generated_Source\PSoC4/TS_Timer.c ****     enableInterrupts = CyEnterCriticalSection();
 1078              		.loc 1 1229 0
 1079 0004 FFF7FEFF 		bl	CyEnterCriticalSection
 1080              	.LVL75:
1230:Generated_Source\PSoC4/TS_Timer.c **** 
1231:Generated_Source\PSoC4/TS_Timer.c ****     TS_Timer_TRIG_CONTROL1_REG &= (uint32)~TS_Timer_COUNT_MASK;
 1081              		.loc 1 1231 0
 1082 0008 054B     		ldr	r3, .L89
 1083 000a 1A68     		ldr	r2, [r3]
 1084 000c 0C21     		mov	r1, #12
 1085 000e 8A43     		bic	r2, r1
 1086 0010 1A60     		str	r2, [r3]
1232:Generated_Source\PSoC4/TS_Timer.c ****     TS_Timer_TRIG_CONTROL1_REG |= ((uint32)(triggerMode << TS_Timer_COUNT_SHIFT));
 1087              		.loc 1 1232 0
 1088 0012 1A68     		ldr	r2, [r3]
 1089 0014 A400     		lsl	r4, r4, #2
 1090              	.LVL76:
 1091 0016 1443     		orr	r4, r2
 1092 0018 1C60     		str	r4, [r3]
1233:Generated_Source\PSoC4/TS_Timer.c **** 
1234:Generated_Source\PSoC4/TS_Timer.c ****     CyExitCriticalSection(enableInterrupts);
 1093              		.loc 1 1234 0
 1094 001a FFF7FEFF 		bl	CyExitCriticalSection
 1095              	.LVL77:
1235:Generated_Source\PSoC4/TS_Timer.c **** }
 1096              		.loc 1 1235 0
 1097              		@ sp needed
 1098 001e 10BD     		pop	{r4, pc}
 1099              	.L90:
 1100              		.align	2
 1101              	.L89:
 1102 0020 24012040 		.word	1075839268
ARM GAS  C:\Users\tiantiaf\AppData\Local\Temp\ccM0Tu1h.s 			page 42


 1103              		.cfi_endproc
 1104              	.LFE34:
 1105              		.size	TS_Timer_SetCountMode, .-TS_Timer_SetCountMode
 1106              		.section	.text.TS_Timer_TriggerCommand,"ax",%progbits
 1107              		.align	2
 1108              		.global	TS_Timer_TriggerCommand
 1109              		.code	16
 1110              		.thumb_func
 1111              		.type	TS_Timer_TriggerCommand, %function
 1112              	TS_Timer_TriggerCommand:
 1113              	.LFB35:
1236:Generated_Source\PSoC4/TS_Timer.c **** 
1237:Generated_Source\PSoC4/TS_Timer.c **** 
1238:Generated_Source\PSoC4/TS_Timer.c **** /*******************************************************************************
1239:Generated_Source\PSoC4/TS_Timer.c **** * Function Name: TS_Timer_TriggerCommand
1240:Generated_Source\PSoC4/TS_Timer.c **** ********************************************************************************
1241:Generated_Source\PSoC4/TS_Timer.c **** *
1242:Generated_Source\PSoC4/TS_Timer.c **** * Summary:
1243:Generated_Source\PSoC4/TS_Timer.c **** *  Triggers the designated command to occur on the designated TCPWM instances.
1244:Generated_Source\PSoC4/TS_Timer.c **** *  The mask can be used to apply this command simultaneously to more than one
1245:Generated_Source\PSoC4/TS_Timer.c **** *  instance.  This allows multiple TCPWM instances to be synchronized.
1246:Generated_Source\PSoC4/TS_Timer.c **** *
1247:Generated_Source\PSoC4/TS_Timer.c **** * Parameters:
1248:Generated_Source\PSoC4/TS_Timer.c **** *  mask: A combination of mask bits for each instance of the TCPWM that the
1249:Generated_Source\PSoC4/TS_Timer.c **** *        command should apply to.  This function from one instance can be used
1250:Generated_Source\PSoC4/TS_Timer.c **** *        to apply the command to any of the instances in the design.
1251:Generated_Source\PSoC4/TS_Timer.c **** *        The mask value for a specific instance is available with the MASK
1252:Generated_Source\PSoC4/TS_Timer.c **** *        define.
1253:Generated_Source\PSoC4/TS_Timer.c **** *  command: Enumerated command values. Capture command only applicable for
1254:Generated_Source\PSoC4/TS_Timer.c **** *           Timer/Counter with Capture and PWM modes.
1255:Generated_Source\PSoC4/TS_Timer.c **** *   Values:
1256:Generated_Source\PSoC4/TS_Timer.c **** *     - TS_Timer_CMD_CAPTURE    - Trigger Capture/Switch command
1257:Generated_Source\PSoC4/TS_Timer.c **** *     - TS_Timer_CMD_RELOAD     - Trigger Reload/Index command
1258:Generated_Source\PSoC4/TS_Timer.c **** *     - TS_Timer_CMD_STOP       - Trigger Stop/Kill command
1259:Generated_Source\PSoC4/TS_Timer.c **** *     - TS_Timer_CMD_START      - Trigger Start/phiB command
1260:Generated_Source\PSoC4/TS_Timer.c **** *
1261:Generated_Source\PSoC4/TS_Timer.c **** * Return:
1262:Generated_Source\PSoC4/TS_Timer.c **** *  None
1263:Generated_Source\PSoC4/TS_Timer.c **** *
1264:Generated_Source\PSoC4/TS_Timer.c **** *******************************************************************************/
1265:Generated_Source\PSoC4/TS_Timer.c **** void TS_Timer_TriggerCommand(uint32 mask, uint32 command)
1266:Generated_Source\PSoC4/TS_Timer.c **** {
 1114              		.loc 1 1266 0
 1115              		.cfi_startproc
 1116              	.LVL78:
 1117 0000 38B5     		push	{r3, r4, r5, lr}
 1118              		.cfi_def_cfa_offset 16
 1119              		.cfi_offset 3, -16
 1120              		.cfi_offset 4, -12
 1121              		.cfi_offset 5, -8
 1122              		.cfi_offset 14, -4
 1123 0002 041C     		mov	r4, r0
 1124 0004 0D1C     		mov	r5, r1
1267:Generated_Source\PSoC4/TS_Timer.c ****     uint8 enableInterrupts;
1268:Generated_Source\PSoC4/TS_Timer.c **** 
1269:Generated_Source\PSoC4/TS_Timer.c ****     enableInterrupts = CyEnterCriticalSection();
 1125              		.loc 1 1269 0
ARM GAS  C:\Users\tiantiaf\AppData\Local\Temp\ccM0Tu1h.s 			page 43


 1126 0006 FFF7FEFF 		bl	CyEnterCriticalSection
 1127              	.LVL79:
1270:Generated_Source\PSoC4/TS_Timer.c **** 
1271:Generated_Source\PSoC4/TS_Timer.c ****     TS_Timer_COMMAND_REG = ((uint32)(mask << command));
 1128              		.loc 1 1271 0
 1129 000a AC40     		lsl	r4, r4, r5
 1130              	.LVL80:
 1131 000c 024B     		ldr	r3, .L92
 1132 000e 1C60     		str	r4, [r3]
1272:Generated_Source\PSoC4/TS_Timer.c **** 
1273:Generated_Source\PSoC4/TS_Timer.c ****     CyExitCriticalSection(enableInterrupts);
 1133              		.loc 1 1273 0
 1134 0010 FFF7FEFF 		bl	CyExitCriticalSection
 1135              	.LVL81:
1274:Generated_Source\PSoC4/TS_Timer.c **** }
 1136              		.loc 1 1274 0
 1137              		@ sp needed
 1138              	.LVL82:
 1139 0014 38BD     		pop	{r3, r4, r5, pc}
 1140              	.L93:
 1141 0016 C046     		.align	2
 1142              	.L92:
 1143 0018 08002040 		.word	1075838984
 1144              		.cfi_endproc
 1145              	.LFE35:
 1146              		.size	TS_Timer_TriggerCommand, .-TS_Timer_TriggerCommand
 1147              		.section	.text.TS_Timer_Enable,"ax",%progbits
 1148              		.align	2
 1149              		.global	TS_Timer_Enable
 1150              		.code	16
 1151              		.thumb_func
 1152              		.type	TS_Timer_Enable, %function
 1153              	TS_Timer_Enable:
 1154              	.LFB3:
 178:Generated_Source\PSoC4/TS_Timer.c ****     uint8 enableInterrupts;
 1155              		.loc 1 178 0
 1156              		.cfi_startproc
 1157 0000 08B5     		push	{r3, lr}
 1158              		.cfi_def_cfa_offset 8
 1159              		.cfi_offset 3, -8
 1160              		.cfi_offset 14, -4
 181:Generated_Source\PSoC4/TS_Timer.c ****     TS_Timer_BLOCK_CONTROL_REG |= TS_Timer_MASK;
 1161              		.loc 1 181 0
 1162 0002 FFF7FEFF 		bl	CyEnterCriticalSection
 1163              	.LVL83:
 182:Generated_Source\PSoC4/TS_Timer.c ****     CyExitCriticalSection(enableInterrupts);
 1164              		.loc 1 182 0
 1165 0006 064A     		ldr	r2, .L95
 1166 0008 1168     		ldr	r1, [r2]
 1167 000a 0123     		mov	r3, #1
 1168 000c 0B43     		orr	r3, r1
 1169 000e 1360     		str	r3, [r2]
 183:Generated_Source\PSoC4/TS_Timer.c **** 
 1170              		.loc 1 183 0
 1171 0010 FFF7FEFF 		bl	CyExitCriticalSection
 1172              	.LVL84:
 194:Generated_Source\PSoC4/TS_Timer.c ****         #endif /* (0u == TS_Timer_TC_START_SIGNAL_PRESENT) */
ARM GAS  C:\Users\tiantiaf\AppData\Local\Temp\ccM0Tu1h.s 			page 44


 1173              		.loc 1 194 0
 1174 0014 0120     		mov	r0, #1
 1175 0016 1821     		mov	r1, #24
 1176 0018 FFF7FEFF 		bl	TS_Timer_TriggerCommand
 1177              	.LVL85:
 203:Generated_Source\PSoC4/TS_Timer.c **** 
 1178              		.loc 1 203 0
 1179              		@ sp needed
 1180 001c 08BD     		pop	{r3, pc}
 1181              	.L96:
 1182 001e C046     		.align	2
 1183              	.L95:
 1184 0020 00002040 		.word	1075838976
 1185              		.cfi_endproc
 1186              	.LFE3:
 1187              		.size	TS_Timer_Enable, .-TS_Timer_Enable
 1188              		.section	.text.TS_Timer_ReadStatus,"ax",%progbits
 1189              		.align	2
 1190              		.global	TS_Timer_ReadStatus
 1191              		.code	16
 1192              		.thumb_func
 1193              		.type	TS_Timer_ReadStatus, %function
 1194              	TS_Timer_ReadStatus:
 1195              	.LFB36:
1275:Generated_Source\PSoC4/TS_Timer.c **** 
1276:Generated_Source\PSoC4/TS_Timer.c **** 
1277:Generated_Source\PSoC4/TS_Timer.c **** /*******************************************************************************
1278:Generated_Source\PSoC4/TS_Timer.c **** * Function Name: TS_Timer_ReadStatus
1279:Generated_Source\PSoC4/TS_Timer.c **** ********************************************************************************
1280:Generated_Source\PSoC4/TS_Timer.c **** *
1281:Generated_Source\PSoC4/TS_Timer.c **** * Summary:
1282:Generated_Source\PSoC4/TS_Timer.c **** *  Reads the status of the TS_Timer.
1283:Generated_Source\PSoC4/TS_Timer.c **** *
1284:Generated_Source\PSoC4/TS_Timer.c **** * Parameters:
1285:Generated_Source\PSoC4/TS_Timer.c **** *  None
1286:Generated_Source\PSoC4/TS_Timer.c **** *
1287:Generated_Source\PSoC4/TS_Timer.c **** * Return:
1288:Generated_Source\PSoC4/TS_Timer.c **** *  Status
1289:Generated_Source\PSoC4/TS_Timer.c **** *   Values:
1290:Generated_Source\PSoC4/TS_Timer.c **** *     - TS_Timer_STATUS_DOWN    - Set if counting down
1291:Generated_Source\PSoC4/TS_Timer.c **** *     - TS_Timer_STATUS_RUNNING - Set if counter is running
1292:Generated_Source\PSoC4/TS_Timer.c **** *
1293:Generated_Source\PSoC4/TS_Timer.c **** *******************************************************************************/
1294:Generated_Source\PSoC4/TS_Timer.c **** uint32 TS_Timer_ReadStatus(void)
1295:Generated_Source\PSoC4/TS_Timer.c **** {
 1196              		.loc 1 1295 0
 1197              		.cfi_startproc
1296:Generated_Source\PSoC4/TS_Timer.c ****     return ((TS_Timer_STATUS_REG >> TS_Timer_RUNNING_STATUS_SHIFT) |
 1198              		.loc 1 1296 0
 1199 0000 034B     		ldr	r3, .L98
 1200 0002 1868     		ldr	r0, [r3]
 1201 0004 820F     		lsr	r2, r0, #30
1297:Generated_Source\PSoC4/TS_Timer.c ****             (TS_Timer_STATUS_REG & TS_Timer_STATUS_DOWN));
 1202              		.loc 1 1297 0
 1203 0006 1B68     		ldr	r3, [r3]
 1204 0008 0120     		mov	r0, #1
 1205 000a 1840     		and	r0, r3
ARM GAS  C:\Users\tiantiaf\AppData\Local\Temp\ccM0Tu1h.s 			page 45


1296:Generated_Source\PSoC4/TS_Timer.c ****     return ((TS_Timer_STATUS_REG >> TS_Timer_RUNNING_STATUS_SHIFT) |
 1206              		.loc 1 1296 0
 1207 000c 1043     		orr	r0, r2
1298:Generated_Source\PSoC4/TS_Timer.c **** }
 1208              		.loc 1 1298 0
 1209              		@ sp needed
 1210 000e 7047     		bx	lr
 1211              	.L99:
 1212              		.align	2
 1213              	.L98:
 1214 0010 04012040 		.word	1075839236
 1215              		.cfi_endproc
 1216              	.LFE36:
 1217              		.size	TS_Timer_ReadStatus, .-TS_Timer_ReadStatus
 1218              		.section	.text.TS_Timer_SetInterruptMode,"ax",%progbits
 1219              		.align	2
 1220              		.global	TS_Timer_SetInterruptMode
 1221              		.code	16
 1222              		.thumb_func
 1223              		.type	TS_Timer_SetInterruptMode, %function
 1224              	TS_Timer_SetInterruptMode:
 1225              	.LFB37:
1299:Generated_Source\PSoC4/TS_Timer.c **** 
1300:Generated_Source\PSoC4/TS_Timer.c **** 
1301:Generated_Source\PSoC4/TS_Timer.c **** /*******************************************************************************
1302:Generated_Source\PSoC4/TS_Timer.c **** * Function Name: TS_Timer_SetInterruptMode
1303:Generated_Source\PSoC4/TS_Timer.c **** ********************************************************************************
1304:Generated_Source\PSoC4/TS_Timer.c **** *
1305:Generated_Source\PSoC4/TS_Timer.c **** * Summary:
1306:Generated_Source\PSoC4/TS_Timer.c **** *  Sets the interrupt mask to control which interrupt
1307:Generated_Source\PSoC4/TS_Timer.c **** *  requests generate the interrupt signal.
1308:Generated_Source\PSoC4/TS_Timer.c **** *
1309:Generated_Source\PSoC4/TS_Timer.c **** * Parameters:
1310:Generated_Source\PSoC4/TS_Timer.c **** *   interruptMask: Mask of bits to be enabled
1311:Generated_Source\PSoC4/TS_Timer.c **** *   Values:
1312:Generated_Source\PSoC4/TS_Timer.c **** *     - TS_Timer_INTR_MASK_TC       - Terminal count mask
1313:Generated_Source\PSoC4/TS_Timer.c **** *     - TS_Timer_INTR_MASK_CC_MATCH - Compare count / capture mask
1314:Generated_Source\PSoC4/TS_Timer.c **** *
1315:Generated_Source\PSoC4/TS_Timer.c **** * Return:
1316:Generated_Source\PSoC4/TS_Timer.c **** *  None
1317:Generated_Source\PSoC4/TS_Timer.c **** *
1318:Generated_Source\PSoC4/TS_Timer.c **** *******************************************************************************/
1319:Generated_Source\PSoC4/TS_Timer.c **** void TS_Timer_SetInterruptMode(uint32 interruptMask)
1320:Generated_Source\PSoC4/TS_Timer.c **** {
 1226              		.loc 1 1320 0
 1227              		.cfi_startproc
 1228              	.LVL86:
1321:Generated_Source\PSoC4/TS_Timer.c ****     TS_Timer_INTERRUPT_MASK_REG =  interruptMask;
 1229              		.loc 1 1321 0
 1230 0000 014B     		ldr	r3, .L101
 1231 0002 1860     		str	r0, [r3]
1322:Generated_Source\PSoC4/TS_Timer.c **** }
 1232              		.loc 1 1322 0
 1233              		@ sp needed
 1234 0004 7047     		bx	lr
 1235              	.L102:
 1236 0006 C046     		.align	2
ARM GAS  C:\Users\tiantiaf\AppData\Local\Temp\ccM0Tu1h.s 			page 46


 1237              	.L101:
 1238 0008 38012040 		.word	1075839288
 1239              		.cfi_endproc
 1240              	.LFE37:
 1241              		.size	TS_Timer_SetInterruptMode, .-TS_Timer_SetInterruptMode
 1242              		.section	.text.TS_Timer_Init,"ax",%progbits
 1243              		.align	2
 1244              		.global	TS_Timer_Init
 1245              		.code	16
 1246              		.thumb_func
 1247              		.type	TS_Timer_Init, %function
 1248              	TS_Timer_Init:
 1249              	.LFB2:
  39:Generated_Source\PSoC4/TS_Timer.c **** 
 1250              		.loc 1 39 0
 1251              		.cfi_startproc
 1252 0000 10B5     		push	{r4, lr}
 1253              		.cfi_def_cfa_offset 8
 1254              		.cfi_offset 4, -8
 1255              		.cfi_offset 14, -4
  58:Generated_Source\PSoC4/TS_Timer.c ****         
 1256              		.loc 1 58 0
 1257 0002 0022     		mov	r2, #0
 1258 0004 0C4B     		ldr	r3, .L104
 1259 0006 1A60     		str	r2, [r3]
  61:Generated_Source\PSoC4/TS_Timer.c ****     
 1260              		.loc 1 61 0
 1261 0008 0C32     		add	r2, r2, #12
 1262 000a 0C4B     		ldr	r3, .L104+4
 1263 000c 1A60     		str	r2, [r3]
  64:Generated_Source\PSoC4/TS_Timer.c ****         
 1264              		.loc 1 64 0
 1265 000e 0020     		mov	r0, #0
 1266 0010 FFF7FEFF 		bl	TS_Timer_SetInterruptMode
 1267              	.LVL87:
  67:Generated_Source\PSoC4/TS_Timer.c **** 
 1268              		.loc 1 67 0
 1269 0014 0A4C     		ldr	r4, .L104+8
 1270 0016 201C     		mov	r0, r4
 1271 0018 FFF7FEFF 		bl	TS_Timer_WritePeriod
 1272              	.LVL88:
  70:Generated_Source\PSoC4/TS_Timer.c **** 
 1273              		.loc 1 70 0
 1274 001c 201C     		mov	r0, r4
 1275 001e FFF7FEFF 		bl	TS_Timer_WriteCompare
 1276              	.LVL89:
  73:Generated_Source\PSoC4/TS_Timer.c ****                 TS_Timer_WriteCompareBuf(TS_Timer_TC_COMPARE_BUF_VALUE);
 1277              		.loc 1 73 0
 1278 0022 0120     		mov	r0, #1
 1279 0024 FFF7FEFF 		bl	TS_Timer_SetCompareSwap
 1280              	.LVL90:
  74:Generated_Source\PSoC4/TS_Timer.c ****             #endif  /* (1u == TS_Timer_TC_COMPARE_SWAP) */
 1281              		.loc 1 74 0
 1282 0028 201C     		mov	r0, r4
 1283 002a FFF7FEFF 		bl	TS_Timer_WriteCompareBuf
 1284              	.LVL91:
  84:Generated_Source\PSoC4/TS_Timer.c ****         #endif /* (TS_Timer_CY_TCPWM_V2 && TS_Timer_TIMER_UPDOWN_CNT_USED && !TS_Timer_CY_TCPWM_400
ARM GAS  C:\Users\tiantiaf\AppData\Local\Temp\ccM0Tu1h.s 			page 47


 1285              		.loc 1 84 0
 1286 002e 0020     		mov	r0, #0
 1287 0030 FFF7FEFF 		bl	TS_Timer_WriteCounter
 1288              	.LVL92:
 160:Generated_Source\PSoC4/TS_Timer.c **** 
 1289              		.loc 1 160 0
 1290              		@ sp needed
 1291 0034 10BD     		pop	{r4, pc}
 1292              	.L105:
 1293 0036 C046     		.align	2
 1294              	.L104:
 1295 0038 00012040 		.word	1075839232
 1296 003c 24012040 		.word	1075839268
 1297 0040 FFFF0000 		.word	65535
 1298              		.cfi_endproc
 1299              	.LFE2:
 1300              		.size	TS_Timer_Init, .-TS_Timer_Init
 1301              		.section	.text.TS_Timer_Start,"ax",%progbits
 1302              		.align	2
 1303              		.global	TS_Timer_Start
 1304              		.code	16
 1305              		.thumb_func
 1306              		.type	TS_Timer_Start, %function
 1307              	TS_Timer_Start:
 1308              	.LFB4:
 231:Generated_Source\PSoC4/TS_Timer.c ****     if (0u == TS_Timer_initVar)
 1309              		.loc 1 231 0
 1310              		.cfi_startproc
 1311 0000 08B5     		push	{r3, lr}
 1312              		.cfi_def_cfa_offset 8
 1313              		.cfi_offset 3, -8
 1314              		.cfi_offset 14, -4
 232:Generated_Source\PSoC4/TS_Timer.c ****     {
 1315              		.loc 1 232 0
 1316 0002 064B     		ldr	r3, .L108
 1317 0004 1B78     		ldrb	r3, [r3]
 1318 0006 002B     		cmp	r3, #0
 1319 0008 04D1     		bne	.L107
 234:Generated_Source\PSoC4/TS_Timer.c ****         TS_Timer_initVar = 1u;
 1320              		.loc 1 234 0
 1321 000a FFF7FEFF 		bl	TS_Timer_Init
 1322              	.LVL93:
 235:Generated_Source\PSoC4/TS_Timer.c ****     }
 1323              		.loc 1 235 0
 1324 000e 0122     		mov	r2, #1
 1325 0010 024B     		ldr	r3, .L108
 1326 0012 1A70     		strb	r2, [r3]
 1327              	.L107:
 238:Generated_Source\PSoC4/TS_Timer.c **** }
 1328              		.loc 1 238 0
 1329 0014 FFF7FEFF 		bl	TS_Timer_Enable
 1330              	.LVL94:
 239:Generated_Source\PSoC4/TS_Timer.c **** 
 1331              		.loc 1 239 0
 1332              		@ sp needed
 1333 0018 08BD     		pop	{r3, pc}
 1334              	.L109:
ARM GAS  C:\Users\tiantiaf\AppData\Local\Temp\ccM0Tu1h.s 			page 48


 1335 001a C046     		.align	2
 1336              	.L108:
 1337 001c 00000000 		.word	.LANCHOR0
 1338              		.cfi_endproc
 1339              	.LFE4:
 1340              		.size	TS_Timer_Start, .-TS_Timer_Start
 1341              		.section	.text.TS_Timer_GetInterruptSourceMasked,"ax",%progbits
 1342              		.align	2
 1343              		.global	TS_Timer_GetInterruptSourceMasked
 1344              		.code	16
 1345              		.thumb_func
 1346              		.type	TS_Timer_GetInterruptSourceMasked, %function
 1347              	TS_Timer_GetInterruptSourceMasked:
 1348              	.LFB38:
1323:Generated_Source\PSoC4/TS_Timer.c **** 
1324:Generated_Source\PSoC4/TS_Timer.c **** 
1325:Generated_Source\PSoC4/TS_Timer.c **** /*******************************************************************************
1326:Generated_Source\PSoC4/TS_Timer.c **** * Function Name: TS_Timer_GetInterruptSourceMasked
1327:Generated_Source\PSoC4/TS_Timer.c **** ********************************************************************************
1328:Generated_Source\PSoC4/TS_Timer.c **** *
1329:Generated_Source\PSoC4/TS_Timer.c **** * Summary:
1330:Generated_Source\PSoC4/TS_Timer.c **** *  Gets the interrupt requests masked by the interrupt mask.
1331:Generated_Source\PSoC4/TS_Timer.c **** *
1332:Generated_Source\PSoC4/TS_Timer.c **** * Parameters:
1333:Generated_Source\PSoC4/TS_Timer.c **** *   None
1334:Generated_Source\PSoC4/TS_Timer.c **** *
1335:Generated_Source\PSoC4/TS_Timer.c **** * Return:
1336:Generated_Source\PSoC4/TS_Timer.c **** *  Masked interrupt source
1337:Generated_Source\PSoC4/TS_Timer.c **** *   Values:
1338:Generated_Source\PSoC4/TS_Timer.c **** *     - TS_Timer_INTR_MASK_TC       - Terminal count mask
1339:Generated_Source\PSoC4/TS_Timer.c **** *     - TS_Timer_INTR_MASK_CC_MATCH - Compare count / capture mask
1340:Generated_Source\PSoC4/TS_Timer.c **** *
1341:Generated_Source\PSoC4/TS_Timer.c **** *******************************************************************************/
1342:Generated_Source\PSoC4/TS_Timer.c **** uint32 TS_Timer_GetInterruptSourceMasked(void)
1343:Generated_Source\PSoC4/TS_Timer.c **** {
 1349              		.loc 1 1343 0
 1350              		.cfi_startproc
1344:Generated_Source\PSoC4/TS_Timer.c ****     return (TS_Timer_INTERRUPT_MASKED_REG);
 1351              		.loc 1 1344 0
 1352 0000 014B     		ldr	r3, .L111
 1353 0002 1868     		ldr	r0, [r3]
1345:Generated_Source\PSoC4/TS_Timer.c **** }
 1354              		.loc 1 1345 0
 1355              		@ sp needed
 1356 0004 7047     		bx	lr
 1357              	.L112:
 1358 0006 C046     		.align	2
 1359              	.L111:
 1360 0008 3C012040 		.word	1075839292
 1361              		.cfi_endproc
 1362              	.LFE38:
 1363              		.size	TS_Timer_GetInterruptSourceMasked, .-TS_Timer_GetInterruptSourceMasked
 1364              		.section	.text.TS_Timer_GetInterruptSource,"ax",%progbits
 1365              		.align	2
 1366              		.global	TS_Timer_GetInterruptSource
 1367              		.code	16
 1368              		.thumb_func
ARM GAS  C:\Users\tiantiaf\AppData\Local\Temp\ccM0Tu1h.s 			page 49


 1369              		.type	TS_Timer_GetInterruptSource, %function
 1370              	TS_Timer_GetInterruptSource:
 1371              	.LFB39:
1346:Generated_Source\PSoC4/TS_Timer.c **** 
1347:Generated_Source\PSoC4/TS_Timer.c **** 
1348:Generated_Source\PSoC4/TS_Timer.c **** /*******************************************************************************
1349:Generated_Source\PSoC4/TS_Timer.c **** * Function Name: TS_Timer_GetInterruptSource
1350:Generated_Source\PSoC4/TS_Timer.c **** ********************************************************************************
1351:Generated_Source\PSoC4/TS_Timer.c **** *
1352:Generated_Source\PSoC4/TS_Timer.c **** * Summary:
1353:Generated_Source\PSoC4/TS_Timer.c **** *  Gets the interrupt requests (without masking).
1354:Generated_Source\PSoC4/TS_Timer.c **** *
1355:Generated_Source\PSoC4/TS_Timer.c **** * Parameters:
1356:Generated_Source\PSoC4/TS_Timer.c **** *  None
1357:Generated_Source\PSoC4/TS_Timer.c **** *
1358:Generated_Source\PSoC4/TS_Timer.c **** * Return:
1359:Generated_Source\PSoC4/TS_Timer.c **** *  Interrupt request value
1360:Generated_Source\PSoC4/TS_Timer.c **** *   Values:
1361:Generated_Source\PSoC4/TS_Timer.c **** *     - TS_Timer_INTR_MASK_TC       - Terminal count mask
1362:Generated_Source\PSoC4/TS_Timer.c **** *     - TS_Timer_INTR_MASK_CC_MATCH - Compare count / capture mask
1363:Generated_Source\PSoC4/TS_Timer.c **** *
1364:Generated_Source\PSoC4/TS_Timer.c **** *******************************************************************************/
1365:Generated_Source\PSoC4/TS_Timer.c **** uint32 TS_Timer_GetInterruptSource(void)
1366:Generated_Source\PSoC4/TS_Timer.c **** {
 1372              		.loc 1 1366 0
 1373              		.cfi_startproc
1367:Generated_Source\PSoC4/TS_Timer.c ****     return (TS_Timer_INTERRUPT_REQ_REG);
 1374              		.loc 1 1367 0
 1375 0000 014B     		ldr	r3, .L114
 1376 0002 1868     		ldr	r0, [r3]
1368:Generated_Source\PSoC4/TS_Timer.c **** }
 1377              		.loc 1 1368 0
 1378              		@ sp needed
 1379 0004 7047     		bx	lr
 1380              	.L115:
 1381 0006 C046     		.align	2
 1382              	.L114:
 1383 0008 30012040 		.word	1075839280
 1384              		.cfi_endproc
 1385              	.LFE39:
 1386              		.size	TS_Timer_GetInterruptSource, .-TS_Timer_GetInterruptSource
 1387              		.section	.text.TS_Timer_ClearInterrupt,"ax",%progbits
 1388              		.align	2
 1389              		.global	TS_Timer_ClearInterrupt
 1390              		.code	16
 1391              		.thumb_func
 1392              		.type	TS_Timer_ClearInterrupt, %function
 1393              	TS_Timer_ClearInterrupt:
 1394              	.LFB40:
1369:Generated_Source\PSoC4/TS_Timer.c **** 
1370:Generated_Source\PSoC4/TS_Timer.c **** 
1371:Generated_Source\PSoC4/TS_Timer.c **** /*******************************************************************************
1372:Generated_Source\PSoC4/TS_Timer.c **** * Function Name: TS_Timer_ClearInterrupt
1373:Generated_Source\PSoC4/TS_Timer.c **** ********************************************************************************
1374:Generated_Source\PSoC4/TS_Timer.c **** *
1375:Generated_Source\PSoC4/TS_Timer.c **** * Summary:
1376:Generated_Source\PSoC4/TS_Timer.c **** *  Clears the interrupt request.
ARM GAS  C:\Users\tiantiaf\AppData\Local\Temp\ccM0Tu1h.s 			page 50


1377:Generated_Source\PSoC4/TS_Timer.c **** *
1378:Generated_Source\PSoC4/TS_Timer.c **** * Parameters:
1379:Generated_Source\PSoC4/TS_Timer.c **** *   interruptMask: Mask of interrupts to clear
1380:Generated_Source\PSoC4/TS_Timer.c **** *   Values:
1381:Generated_Source\PSoC4/TS_Timer.c **** *     - TS_Timer_INTR_MASK_TC       - Terminal count mask
1382:Generated_Source\PSoC4/TS_Timer.c **** *     - TS_Timer_INTR_MASK_CC_MATCH - Compare count / capture mask
1383:Generated_Source\PSoC4/TS_Timer.c **** *
1384:Generated_Source\PSoC4/TS_Timer.c **** * Return:
1385:Generated_Source\PSoC4/TS_Timer.c **** *  None
1386:Generated_Source\PSoC4/TS_Timer.c **** *
1387:Generated_Source\PSoC4/TS_Timer.c **** *******************************************************************************/
1388:Generated_Source\PSoC4/TS_Timer.c **** void TS_Timer_ClearInterrupt(uint32 interruptMask)
1389:Generated_Source\PSoC4/TS_Timer.c **** {
 1395              		.loc 1 1389 0
 1396              		.cfi_startproc
 1397              	.LVL95:
1390:Generated_Source\PSoC4/TS_Timer.c ****     TS_Timer_INTERRUPT_REQ_REG = interruptMask;
 1398              		.loc 1 1390 0
 1399 0000 014B     		ldr	r3, .L117
 1400 0002 1860     		str	r0, [r3]
1391:Generated_Source\PSoC4/TS_Timer.c **** }
 1401              		.loc 1 1391 0
 1402              		@ sp needed
 1403 0004 7047     		bx	lr
 1404              	.L118:
 1405 0006 C046     		.align	2
 1406              	.L117:
 1407 0008 30012040 		.word	1075839280
 1408              		.cfi_endproc
 1409              	.LFE40:
 1410              		.size	TS_Timer_ClearInterrupt, .-TS_Timer_ClearInterrupt
 1411              		.section	.text.TS_Timer_SetInterrupt,"ax",%progbits
 1412              		.align	2
 1413              		.global	TS_Timer_SetInterrupt
 1414              		.code	16
 1415              		.thumb_func
 1416              		.type	TS_Timer_SetInterrupt, %function
 1417              	TS_Timer_SetInterrupt:
 1418              	.LFB41:
1392:Generated_Source\PSoC4/TS_Timer.c **** 
1393:Generated_Source\PSoC4/TS_Timer.c **** 
1394:Generated_Source\PSoC4/TS_Timer.c **** /*******************************************************************************
1395:Generated_Source\PSoC4/TS_Timer.c **** * Function Name: TS_Timer_SetInterrupt
1396:Generated_Source\PSoC4/TS_Timer.c **** ********************************************************************************
1397:Generated_Source\PSoC4/TS_Timer.c **** *
1398:Generated_Source\PSoC4/TS_Timer.c **** * Summary:
1399:Generated_Source\PSoC4/TS_Timer.c **** *  Sets a software interrupt request.
1400:Generated_Source\PSoC4/TS_Timer.c **** *
1401:Generated_Source\PSoC4/TS_Timer.c **** * Parameters:
1402:Generated_Source\PSoC4/TS_Timer.c **** *   interruptMask: Mask of interrupts to set
1403:Generated_Source\PSoC4/TS_Timer.c **** *   Values:
1404:Generated_Source\PSoC4/TS_Timer.c **** *     - TS_Timer_INTR_MASK_TC       - Terminal count mask
1405:Generated_Source\PSoC4/TS_Timer.c **** *     - TS_Timer_INTR_MASK_CC_MATCH - Compare count / capture mask
1406:Generated_Source\PSoC4/TS_Timer.c **** *
1407:Generated_Source\PSoC4/TS_Timer.c **** * Return:
1408:Generated_Source\PSoC4/TS_Timer.c **** *  None
1409:Generated_Source\PSoC4/TS_Timer.c **** *
ARM GAS  C:\Users\tiantiaf\AppData\Local\Temp\ccM0Tu1h.s 			page 51


1410:Generated_Source\PSoC4/TS_Timer.c **** *******************************************************************************/
1411:Generated_Source\PSoC4/TS_Timer.c **** void TS_Timer_SetInterrupt(uint32 interruptMask)
1412:Generated_Source\PSoC4/TS_Timer.c **** {
 1419              		.loc 1 1412 0
 1420              		.cfi_startproc
 1421              	.LVL96:
1413:Generated_Source\PSoC4/TS_Timer.c ****     TS_Timer_INTERRUPT_SET_REG = interruptMask;
 1422              		.loc 1 1413 0
 1423 0000 014B     		ldr	r3, .L120
 1424 0002 1860     		str	r0, [r3]
1414:Generated_Source\PSoC4/TS_Timer.c **** }
 1425              		.loc 1 1414 0
 1426              		@ sp needed
 1427 0004 7047     		bx	lr
 1428              	.L121:
 1429 0006 C046     		.align	2
 1430              	.L120:
 1431 0008 34012040 		.word	1075839284
 1432              		.cfi_endproc
 1433              	.LFE41:
 1434              		.size	TS_Timer_SetInterrupt, .-TS_Timer_SetInterrupt
 1435              		.global	TS_Timer_initVar
 1436              		.bss
 1437              		.set	.LANCHOR0,. + 0
 1438              		.type	TS_Timer_initVar, %object
 1439              		.size	TS_Timer_initVar, 1
 1440              	TS_Timer_initVar:
 1441 0000 00       		.space	1
 1442              		.text
 1443              	.Letext0:
 1444              		.file 2 "Generated_Source\\PSoC4\\cytypes.h"
 1445              		.file 3 "Generated_Source\\PSoC4\\CyLib.h"